{
   <insert_a_suppression_name_here>
   Memcheck:Cond
   obj:/usr/lib/x86_64-linux-gnu/libLLVM-9.so.1
   fun:_ZN4llvm19MachineFunctionPass13runOnFunctionERNS_8FunctionE
   fun:_ZN4llvm13FPPassManager13runOnFunctionERNS_8FunctionE
   obj:/usr/lib/x86_64-linux-gnu/libLLVM-9.so.1
   fun:_ZN4llvm6legacy15PassManagerImpl3runERNS_6ModuleE
   obj:/usr/lib/x86_64-linux-gnu/dri/radeonsi_dri.so
   obj:/usr/lib/x86_64-linux-gnu/dri/radeonsi_dri.so
   obj:/usr/lib/x86_64-linux-gnu/dri/radeonsi_dri.so
   obj:/usr/lib/x86_64-linux-gnu/dri/radeonsi_dri.so
   obj:/usr/lib/x86_64-linux-gnu/dri/radeonsi_dri.so
   obj:/usr/lib/x86_64-linux-gnu/dri/radeonsi_dri.so
   obj:/usr/lib/x86_64-linux-gnu/dri/radeonsi_dri.so
}
{
   <insert_a_suppression_name_here>
   Memcheck:Leak
   match-leak-kinds: reachable
   fun:malloc
   fun:strdup
   fun:_XlcCreateLC
   fun:_XlcDefaultLoader
   fun:_XOpenLC
   fun:_XlcCurrentLC
   fun:XSetLocaleModifiers
   obj:/usr/lib/x86_64-linux-gnu/libSDL2-2.0.so.0.10.0
   obj:/usr/lib/x86_64-linux-gnu/libSDL2-2.0.so.0.10.0
   obj:/usr/lib/x86_64-linux-gnu/libSDL2-2.0.so.0.10.0
   obj:/usr/lib/x86_64-linux-gnu/libSDL2-2.0.so.0.10.0
   fun:_ZN9SDLWindowC1Eii
}
{
   <insert_a_suppression_name_here>
   Memcheck:Leak
   match-leak-kinds: reachable
   fun:malloc
   fun:strdup
   fun:_XlcResolveLocaleName
   obj:/usr/lib/x86_64-linux-gnu/libX11.so.6.3.0
   obj:/usr/lib/x86_64-linux-gnu/libX11.so.6.3.0
   fun:_XlcCreateLC
   fun:_XlcDefaultLoader
   fun:_XOpenLC
   fun:_XlcCurrentLC
   fun:XSetLocaleModifiers
   obj:/usr/lib/x86_64-linux-gnu/libSDL2-2.0.so.0.10.0
   obj:/usr/lib/x86_64-linux-gnu/libSDL2-2.0.so.0.10.0
}
{
   <insert_a_suppression_name_here>
   Memcheck:Leak
   match-leak-kinds: reachable
   fun:malloc
   fun:strdup
   obj:/usr/lib/x86_64-linux-gnu/libX11.so.6.3.0
   obj:/usr/lib/x86_64-linux-gnu/libX11.so.6.3.0
   fun:_XlcCreateLC
   fun:_XlcDefaultLoader
   fun:_XOpenLC
   fun:_XlcCurrentLC
   fun:XSetLocaleModifiers
   obj:/usr/lib/x86_64-linux-gnu/libSDL2-2.0.so.0.10.0
   obj:/usr/lib/x86_64-linux-gnu/libSDL2-2.0.so.0.10.0
   obj:/usr/lib/x86_64-linux-gnu/libSDL2-2.0.so.0.10.0
}
{
   <insert_a_suppression_name_here>
   Memcheck:Leak
   match-leak-kinds: reachable
   fun:malloc
   fun:_XimOpenIM
   obj:/usr/lib/x86_64-linux-gnu/libSDL2-2.0.so.0.10.0
   obj:/usr/lib/x86_64-linux-gnu/libSDL2-2.0.so.0.10.0
   obj:/usr/lib/x86_64-linux-gnu/libSDL2-2.0.so.0.10.0
   obj:/usr/lib/x86_64-linux-gnu/libSDL2-2.0.so.0.10.0
   fun:_ZN9SDLWindowC1Eii
   fun:main
}
{
   <insert_a_suppression_name_here>
   Memcheck:Leak
   match-leak-kinds: reachable
   fun:malloc
   fun:allocate_dtv_entry
   fun:allocate_and_init
   fun:tls_get_addr_tail.isra.0
   fun:__tls_get_addr
   fun:_ZN4llvm21PrettyStackTraceEntryC2Ev
   fun:_ZN4llvm6legacy15PassManagerImpl3runERNS_6ModuleE
   fun:LLVMRunPassManager
   obj:/usr/lib/x86_64-linux-gnu/dri/radeonsi_dri.so
   obj:/usr/lib/x86_64-linux-gnu/dri/radeonsi_dri.so
   obj:/usr/lib/x86_64-linux-gnu/dri/radeonsi_dri.so
   obj:/usr/lib/x86_64-linux-gnu/dri/radeonsi_dri.so
   obj:/usr/lib/x86_64-linux-gnu/dri/radeonsi_dri.so
   obj:/usr/lib/x86_64-linux-gnu/dri/radeonsi_dri.so
}
{
   <insert_a_suppression_name_here>
   Memcheck:Leak
   match-leak-kinds: reachable
   fun:realloc
   obj:/usr/lib/x86_64-linux-gnu/libX11.so.6.3.0
   obj:/usr/lib/x86_64-linux-gnu/libX11.so.6.3.0
   obj:/usr/lib/x86_64-linux-gnu/libX11.so.6.3.0
   fun:_XlcCreateLC
   fun:_XlcDefaultLoader
   fun:_XOpenLC
   fun:_XlcCurrentLC
   fun:XSetLocaleModifiers
   obj:/usr/lib/x86_64-linux-gnu/libSDL2-2.0.so.0.10.0
   obj:/usr/lib/x86_64-linux-gnu/libSDL2-2.0.so.0.10.0
   obj:/usr/lib/x86_64-linux-gnu/libSDL2-2.0.so.0.10.0
}
{
   <insert_a_suppression_name_here>
   Memcheck:Leak
   match-leak-kinds: reachable
   fun:_Znwm
   obj:/usr/lib/x86_64-linux-gnu/libLLVM-9.so.1
   fun:__pthread_once_slow
   fun:_ZNK4llvm17ManagedStaticBase21RegisterManagedStaticEPFPvvEPFvS1_E
   fun:_ZN4llvm2cl14OptionCategory16registerCategoryEv
   obj:/usr/lib/x86_64-linux-gnu/libLLVM-9.so.1
   fun:call_init.part.0
   fun:call_init
   fun:_dl_init
   fun:_dl_catch_exception
   fun:dl_open_worker
   fun:_dl_catch_exception
   fun:_dl_open
}
{
   <insert_a_suppression_name_here>
   Memcheck:Leak
   match-leak-kinds: reachable
   fun:_Znwm
   fun:_ZN4llvm12PassRegistry23addRegistrationListenerEPNS_24PassRegistrationListenerE
   obj:/usr/lib/x86_64-linux-gnu/libLLVM-9.so.1
   fun:call_init.part.0
   fun:call_init
   fun:_dl_init
   fun:_dl_catch_exception
   fun:dl_open_worker
   fun:_dl_catch_exception
   fun:_dl_open
   fun:dlopen_doit
   fun:_dl_catch_exception
   fun:_dl_catch_error
}
{
   <insert_a_suppression_name_here>
   Memcheck:Leak
   match-leak-kinds: reachable
   fun:_Znwm
   obj:/usr/lib/x86_64-linux-gnu/libLLVM-9.so.1
   fun:_ZNK4llvm17ManagedStaticBase21RegisterManagedStaticEPFPvvEPFvS1_E
   fun:_ZNK4llvm15LLVMContextImpl14getOptPassGateEv
   fun:_ZNK4llvm12FunctionPass12skipFunctionERKNS_8FunctionE
   obj:/usr/lib/x86_64-linux-gnu/libLLVM-9.so.1
   fun:_ZN4llvm13FPPassManager13runOnFunctionERNS_8FunctionE
   fun:_ZN4llvm13FPPassManager11runOnModuleERNS_6ModuleE
   fun:_ZN4llvm6legacy15PassManagerImpl3runERNS_6ModuleE
   fun:LLVMRunPassManager
   obj:/usr/lib/x86_64-linux-gnu/dri/radeonsi_dri.so
   obj:/usr/lib/x86_64-linux-gnu/dri/radeonsi_dri.so
}
{
   <insert_a_suppression_name_here>
   Memcheck:Leak
   match-leak-kinds: reachable
   fun:_Znwm
   obj:/usr/lib/x86_64-linux-gnu/libLLVM-9.so.1
   fun:_ZNK4llvm17ManagedStaticBase21RegisterManagedStaticEPFPvvEPFvS1_E
   fun:_ZN4llvm6SDNode16getValueTypeListENS_3EVTE
   fun:_ZN4llvm12SelectionDAG7getNodeEjRKNS_5SDLocENS_3EVTENS_7SDValueENS_11SDNodeFlagsE
   obj:/usr/lib/x86_64-linux-gnu/libLLVM-9.so.1
   obj:/usr/lib/x86_64-linux-gnu/libLLVM-9.so.1
   obj:/usr/lib/x86_64-linux-gnu/libLLVM-9.so.1
   fun:_ZN4llvm12SelectionDAG13LegalizeTypesEv
   fun:_ZN4llvm16SelectionDAGISel17CodeGenAndEmitDAGEv
   fun:_ZN4llvm16SelectionDAGISel20SelectAllBasicBlocksERKNS_8FunctionE
   fun:_ZN4llvm16SelectionDAGISel20runOnMachineFunctionERNS_15MachineFunctionE
}
{
   <insert_a_suppression_name_here>
   Memcheck:Leak
   match-leak-kinds: reachable
   fun:malloc
   obj:/usr/lib/x86_64-linux-gnu/libX11.so.6.3.0
   obj:/usr/lib/x86_64-linux-gnu/libX11.so.6.3.0
   fun:_XlcCreateLC
   fun:_XlcDefaultLoader
   fun:_XOpenLC
   fun:_XlcCurrentLC
   fun:XSetLocaleModifiers
   obj:/usr/lib/x86_64-linux-gnu/libSDL2-2.0.so.0.10.0
   obj:/usr/lib/x86_64-linux-gnu/libSDL2-2.0.so.0.10.0
   obj:/usr/lib/x86_64-linux-gnu/libSDL2-2.0.so.0.10.0
   obj:/usr/lib/x86_64-linux-gnu/libSDL2-2.0.so.0.10.0
}
{
   <insert_a_suppression_name_here>
   Memcheck:Leak
   match-leak-kinds: definite
   fun:malloc
   fun:_XlcDefaultMapModifiers
   fun:XSetLocaleModifiers
   obj:/usr/lib/x86_64-linux-gnu/libSDL2-2.0.so.0.10.0
   obj:/usr/lib/x86_64-linux-gnu/libSDL2-2.0.so.0.10.0
   obj:/usr/lib/x86_64-linux-gnu/libSDL2-2.0.so.0.10.0
   obj:/usr/lib/x86_64-linux-gnu/libSDL2-2.0.so.0.10.0
   fun:_ZN9SDLWindowC1Eii
   fun:main
}
{
   <insert_a_suppression_name_here>
   Memcheck:Leak
   match-leak-kinds: reachable
   fun:_Znwm
   fun:_ZNSt8_Rb_treeINSt7__cxx1112basic_stringIcSt11char_traitsIcESaIcEEESt4pairIKS5_jESt10_Select1stIS8_ESt4lessIS5_ESaIS8_EE22_M_emplace_hint_uniqueIJRKSt21piecewise_construct_tSt5tupleIJRS7_EESJ_IJEEEEESt17_Rb_tree_iteratorIS8_ESt23_Rb_tree_const_iteratorIS8_EDpOT_
   obj:/usr/lib/x86_64-linux-gnu/libLLVM-9.so.1
   obj:/usr/lib/x86_64-linux-gnu/libLLVM-9.so.1
   obj:/usr/lib/x86_64-linux-gnu/libLLVM-9.so.1
   obj:/usr/lib/x86_64-linux-gnu/libLLVM-9.so.1
   obj:/usr/lib/x86_64-linux-gnu/libLLVM-9.so.1
   fun:call_init.part.0
   fun:call_init
   fun:_dl_init
   fun:_dl_catch_exception
   fun:dl_open_worker
   fun:_dl_catch_exception
}
{
   <insert_a_suppression_name_here>
   Memcheck:Leak
   match-leak-kinds: reachable
   fun:_Znwm
   fun:_ZNSt6vectorINSt7__cxx1112basic_stringIcSt11char_traitsIcESaIcEEESaIS5_EE17_M_realloc_insertIJRKS5_EEEvN9__gnu_cxx17__normal_iteratorIPS5_S7_EEDpOT_
   obj:/usr/lib/x86_64-linux-gnu/libLLVM-9.so.1
   obj:/usr/lib/x86_64-linux-gnu/libLLVM-9.so.1
   obj:/usr/lib/x86_64-linux-gnu/libLLVM-9.so.1
   obj:/usr/lib/x86_64-linux-gnu/libLLVM-9.so.1
   fun:call_init.part.0
   fun:call_init
   fun:_dl_init
   fun:_dl_catch_exception
   fun:dl_open_worker
   fun:_dl_catch_exception
   fun:_dl_open
}
{
   <insert_a_suppression_name_here>
   Memcheck:Leak
   match-leak-kinds: reachable
   fun:malloc
   obj:/usr/lib/x86_64-linux-gnu/libLLVM-9.so.1
   obj:/usr/lib/x86_64-linux-gnu/libLLVM-9.so.1
   obj:/usr/lib/x86_64-linux-gnu/libLLVM-9.so.1
   fun:_ZN4llvm2cl23ParseCommandLineOptionsEiPKPKcNS_9StringRefEPNS_11raw_ostreamES2_b
   fun:LLVMParseCommandLineOptions
   obj:/usr/lib/x86_64-linux-gnu/dri/radeonsi_dri.so
   fun:__pthread_once_slow
   obj:/usr/lib/x86_64-linux-gnu/dri/radeonsi_dri.so
   obj:/usr/lib/x86_64-linux-gnu/dri/radeonsi_dri.so
   obj:/usr/lib/x86_64-linux-gnu/dri/radeonsi_dri.so
   obj:/usr/lib/x86_64-linux-gnu/dri/radeonsi_dri.so
}
{
   <insert_a_suppression_name_here>
   Memcheck:Leak
   match-leak-kinds: reachable
   fun:malloc
   obj:/usr/lib/x86_64-linux-gnu/libLLVM-9.so.1
   obj:/usr/lib/x86_64-linux-gnu/libLLVM-9.so.1
   obj:/usr/lib/x86_64-linux-gnu/libLLVM-9.so.1
   obj:/usr/lib/x86_64-linux-gnu/libLLVM-9.so.1
   fun:_ZN4llvm2cl23ParseCommandLineOptionsEiPKPKcNS_9StringRefEPNS_11raw_ostreamES2_b
   fun:LLVMParseCommandLineOptions
   obj:/usr/lib/x86_64-linux-gnu/dri/radeonsi_dri.so
   fun:__pthread_once_slow
   obj:/usr/lib/x86_64-linux-gnu/dri/radeonsi_dri.so
   obj:/usr/lib/x86_64-linux-gnu/dri/radeonsi_dri.so
   obj:/usr/lib/x86_64-linux-gnu/dri/radeonsi_dri.so
}
{
   <insert_a_suppression_name_here>
   Memcheck:Leak
   match-leak-kinds: reachable
   fun:malloc
   obj:/usr/lib/x86_64-linux-gnu/libLLVM-9.so.1
   fun:_ZN4llvm12PassRegistry12registerPassERKNS_8PassInfoEb
   obj:/usr/lib/x86_64-linux-gnu/libLLVM-9.so.1
   fun:__pthread_once_slow
   fun:_ZN4llvm34initializeAAResultsWrapperPassPassERNS_12PassRegistryE
   obj:/usr/lib/x86_64-linux-gnu/libLLVM-9.so.1
   fun:__pthread_once_slow
   fun:_ZN4llvm27initializeLiveIntervalsPassERNS_12PassRegistryE
   obj:/usr/lib/x86_64-linux-gnu/libLLVM-9.so.1
   fun:__pthread_once_slow
   fun:_ZN4llvm40initializeSIOptimizeExecMaskingPreRAPassERNS_12PassRegistryE
}
{
   <insert_a_suppression_name_here>
   Memcheck:Leak
   match-leak-kinds: reachable
   fun:_Znwm
   obj:/usr/lib/x86_64-linux-gnu/libLLVM-9.so.1
   obj:/usr/lib/x86_64-linux-gnu/libLLVM-9.so.1
   obj:/usr/lib/x86_64-linux-gnu/libLLVM-9.so.1
   obj:/usr/lib/x86_64-linux-gnu/libLLVM-9.so.1
   fun:call_init.part.0
   fun:call_init
   fun:_dl_init
   fun:_dl_catch_exception
   fun:dl_open_worker
   fun:_dl_catch_exception
   fun:_dl_open
   fun:dlopen_doit
}
{
   <insert_a_suppression_name_here>
   Memcheck:Leak
   match-leak-kinds: reachable
   fun:malloc
   obj:/usr/lib/x86_64-linux-gnu/libLLVM-9.so.1
   obj:/usr/lib/x86_64-linux-gnu/libLLVM-9.so.1
   fun:_ZN4llvm2cl6Option11addArgumentEv
   obj:/usr/lib/x86_64-linux-gnu/libLLVM-9.so.1
   fun:call_init.part.0
   fun:call_init
   fun:_dl_init
   fun:_dl_catch_exception
   fun:dl_open_worker
   fun:_dl_catch_exception
   fun:_dl_open
   fun:dlopen_doit
}
{
   <insert_a_suppression_name_here>
   Memcheck:Leak
   match-leak-kinds: reachable
   fun:malloc
   obj:/usr/lib/x86_64-linux-gnu/libLLVM-9.so.1
   fun:_ZN4llvm12PassRegistry12registerPassERKNS_8PassInfoEb
   obj:/usr/lib/x86_64-linux-gnu/libLLVM-9.so.1
   fun:__pthread_once_slow
   fun:_ZN4llvm44initializeTargetTransformInfoWrapperPassPassERNS_12PassRegistryE
   obj:/usr/lib/x86_64-linux-gnu/libLLVM-9.so.1
   fun:__pthread_once_slow
   fun:_ZN4llvm23initializeLocalizerPassERNS_12PassRegistryE
   fun:_ZN4llvm20initializeGlobalISelERNS_12PassRegistryE
   fun:LLVMInitializeAMDGPUTarget
   obj:/usr/lib/x86_64-linux-gnu/dri/radeonsi_dri.so
}
{
   <insert_a_suppression_name_here>
   Memcheck:Leak
   match-leak-kinds: reachable
   fun:malloc
   obj:/usr/lib/x86_64-linux-gnu/libLLVM-9.so.1
   obj:/usr/lib/x86_64-linux-gnu/libLLVM-9.so.1
   obj:/usr/lib/x86_64-linux-gnu/libLLVM-9.so.1
   obj:/usr/lib/x86_64-linux-gnu/libLLVM-9.so.1
   fun:call_init.part.0
   fun:call_init
   fun:_dl_init
   fun:_dl_catch_exception
   fun:dl_open_worker
   fun:_dl_catch_exception
   fun:_dl_open
   fun:dlopen_doit
}
{
   <insert_a_suppression_name_here>
   Memcheck:Leak
   match-leak-kinds: reachable
   fun:malloc
   obj:/usr/lib/x86_64-linux-gnu/libLLVM-9.so.1
   obj:/usr/lib/x86_64-linux-gnu/libLLVM-9.so.1
   obj:/usr/lib/x86_64-linux-gnu/libLLVM-9.so.1
   obj:/usr/lib/x86_64-linux-gnu/libLLVM-9.so.1
   obj:/usr/lib/x86_64-linux-gnu/libLLVM-9.so.1
   fun:call_init.part.0
   fun:call_init
   fun:_dl_init
   fun:_dl_catch_exception
   fun:dl_open_worker
   fun:_dl_catch_exception
   fun:_dl_open
}
{
   <insert_a_suppression_name_here>
   Memcheck:Leak
   match-leak-kinds: reachable
   fun:malloc
   obj:/usr/lib/x86_64-linux-gnu/libLLVM-9.so.1
   fun:_ZN4llvm12PassRegistry12registerPassERKNS_8PassInfoEb
   obj:/usr/lib/x86_64-linux-gnu/libLLVM-9.so.1
   fun:__pthread_once_slow
   fun:_ZN4llvm36initializeTypeBasedAAWrapperPassPassERNS_12PassRegistryE
   obj:/usr/lib/x86_64-linux-gnu/libLLVM-9.so.1
   fun:__pthread_once_slow
   fun:_ZN4llvm34initializeAAResultsWrapperPassPassERNS_12PassRegistryE
   obj:/usr/lib/x86_64-linux-gnu/libLLVM-9.so.1
   fun:__pthread_once_slow
   fun:_ZN4llvm27initializeLiveIntervalsPassERNS_12PassRegistryE
}
{
   <insert_a_suppression_name_here>
   Memcheck:Leak
   match-leak-kinds: reachable
   fun:malloc
   obj:/usr/lib/x86_64-linux-gnu/libLLVM-9.so.1
   fun:_ZN4llvm12PassRegistry12registerPassERKNS_8PassInfoEb
   obj:/usr/lib/x86_64-linux-gnu/libLLVM-9.so.1
   fun:__pthread_once_slow
   obj:/usr/lib/x86_64-linux-gnu/libLLVM-9.so.1
   fun:_ZN4llvm14createSROAPassEv
   fun:LLVMAddScalarReplAggregatesPass
   obj:/usr/lib/x86_64-linux-gnu/dri/radeonsi_dri.so
   obj:/usr/lib/x86_64-linux-gnu/dri/radeonsi_dri.so
   obj:/usr/lib/x86_64-linux-gnu/dri/radeonsi_dri.so
   obj:/usr/lib/x86_64-linux-gnu/dri/radeonsi_dri.so
}
{
   <insert_a_suppression_name_here>
   Memcheck:Leak
   match-leak-kinds: reachable
   fun:malloc
   obj:/usr/lib/x86_64-linux-gnu/libLLVM-9.so.1
   fun:_ZN4llvm12PassRegistry12registerPassERKNS_8PassInfoEb
   obj:/usr/lib/x86_64-linux-gnu/libLLVM-9.so.1
   fun:__pthread_once_slow
   fun:_ZN4llvm14createLICMPassEv
   fun:LLVMAddLICMPass
   obj:/usr/lib/x86_64-linux-gnu/dri/radeonsi_dri.so
   obj:/usr/lib/x86_64-linux-gnu/dri/radeonsi_dri.so
   obj:/usr/lib/x86_64-linux-gnu/dri/radeonsi_dri.so
   obj:/usr/lib/x86_64-linux-gnu/dri/radeonsi_dri.so
   obj:/usr/lib/x86_64-linux-gnu/dri/radeonsi_dri.so
}
{
   <insert_a_suppression_name_here>
   Memcheck:Leak
   match-leak-kinds: reachable
   fun:malloc
   obj:/usr/lib/x86_64-linux-gnu/libLLVM-9.so.1
   fun:_ZN4llvm12PassRegistry12registerPassERKNS_8PassInfoEb
   obj:/usr/lib/x86_64-linux-gnu/libLLVM-9.so.1
   fun:__pthread_once_slow
   fun:_ZN4llvm23createAggressiveDCEPassEv
   fun:LLVMAddAggressiveDCEPass
   obj:/usr/lib/x86_64-linux-gnu/dri/radeonsi_dri.so
   obj:/usr/lib/x86_64-linux-gnu/dri/radeonsi_dri.so
   obj:/usr/lib/x86_64-linux-gnu/dri/radeonsi_dri.so
   obj:/usr/lib/x86_64-linux-gnu/dri/radeonsi_dri.so
   obj:/usr/lib/x86_64-linux-gnu/dri/radeonsi_dri.so
}
{
   <insert_a_suppression_name_here>
   Memcheck:Leak
   match-leak-kinds: reachable
   fun:malloc
   obj:/usr/lib/x86_64-linux-gnu/libLLVM-9.so.1
   fun:_ZN4llvm12PassRegistry12registerPassERKNS_8PassInfoEb
   obj:/usr/lib/x86_64-linux-gnu/libLLVM-9.so.1
   fun:__pthread_once_slow
   fun:_ZN4llvm36createStraightLineStrengthReducePassEv
   obj:/usr/lib/x86_64-linux-gnu/libLLVM-9.so.1
   fun:_ZN4llvm16TargetPassConfig13addISelPassesEv
   fun:_ZN4llvm17LLVMTargetMachine19addPassesToEmitFileERNS_6legacy15PassManagerBaseERNS_17raw_pwrite_streamEPS4_NS_13TargetMachine15CodeGenFileTypeEbPNS_17MachineModuleInfoE
   obj:/usr/lib/x86_64-linux-gnu/dri/radeonsi_dri.so
   obj:/usr/lib/x86_64-linux-gnu/dri/radeonsi_dri.so
   obj:/usr/lib/x86_64-linux-gnu/dri/radeonsi_dri.so
}
{
   <insert_a_suppression_name_here>
   Memcheck:Leak
   match-leak-kinds: reachable
   fun:malloc
   obj:/usr/lib/x86_64-linux-gnu/libLLVM-9.so.1
   fun:_ZN4llvm12PassRegistry12registerPassERKNS_8PassInfoEb
   obj:/usr/lib/x86_64-linux-gnu/libLLVM-9.so.1
   fun:__pthread_once_slow
   fun:_ZN4llvm17createSinkingPassEv
   obj:/usr/lib/x86_64-linux-gnu/libLLVM-9.so.1
   fun:_ZN4llvm16TargetPassConfig14addISelPrepareEv
   fun:_ZN4llvm16TargetPassConfig13addISelPassesEv
   fun:_ZN4llvm17LLVMTargetMachine19addPassesToEmitFileERNS_6legacy15PassManagerBaseERNS_17raw_pwrite_streamEPS4_NS_13TargetMachine15CodeGenFileTypeEbPNS_17MachineModuleInfoE
   obj:/usr/lib/x86_64-linux-gnu/dri/radeonsi_dri.so
   obj:/usr/lib/x86_64-linux-gnu/dri/radeonsi_dri.so
}
{
   <insert_a_suppression_name_here>
   Memcheck:Leak
   match-leak-kinds: reachable
   fun:malloc
   obj:/usr/lib/x86_64-linux-gnu/libLLVM-9.so.1
   fun:_ZN4llvm12PassRegistry12registerPassERKNS_8PassInfoEb
   obj:/usr/lib/x86_64-linux-gnu/libLLVM-9.so.1
   fun:__pthread_once_slow
   fun:_ZN4llvm33initializeLoopInfoWrapperPassPassERNS_12PassRegistryE
   obj:/usr/lib/x86_64-linux-gnu/libLLVM-9.so.1
   fun:__pthread_once_slow
   fun:_ZN4llvm38initializeLegacyDivergenceAnalysisPassERNS_12PassRegistryE
   obj:/usr/lib/x86_64-linux-gnu/libLLVM-9.so.1
   fun:__pthread_once_slow
   fun:_ZN4llvm32initializeAMDGPUDAGToDAGISelPassERNS_12PassRegistryE
}
{
   <insert_a_suppression_name_here>
   Memcheck:Leak
   match-leak-kinds: reachable
   fun:malloc
   obj:/usr/lib/x86_64-linux-gnu/libLLVM-9.so.1
   fun:_ZN4llvm12PassRegistry12registerPassERKNS_8PassInfoEb
   obj:/usr/lib/x86_64-linux-gnu/libLLVM-9.so.1
   fun:__pthread_once_slow
   fun:_ZN4llvm30initializeLCSSAWrapperPassPassERNS_12PassRegistryE
   fun:_ZN4llvm22initializeLoopPassPassERNS_12PassRegistryE
   obj:/usr/lib/x86_64-linux-gnu/libLLVM-9.so.1
   fun:__pthread_once_slow
   fun:_ZN4llvm14createLICMPassEv
   fun:LLVMAddLICMPass
   obj:/usr/lib/x86_64-linux-gnu/dri/radeonsi_dri.so
}
{
   <insert_a_suppression_name_here>
   Memcheck:Leak
   match-leak-kinds: reachable
   fun:malloc
   obj:/usr/lib/x86_64-linux-gnu/libLLVM-9.so.1
   fun:_ZN4llvm12PassRegistry12registerPassERKNS_8PassInfoEb
   obj:/usr/lib/x86_64-linux-gnu/libLLVM-9.so.1
   fun:__pthread_once_slow
   fun:_ZN4llvm38initializeR600ControlFlowFinalizerPassERNS_12PassRegistryE
   fun:LLVMInitializeAMDGPUTarget
   obj:/usr/lib/x86_64-linux-gnu/dri/radeonsi_dri.so
   fun:__pthread_once_slow
   obj:/usr/lib/x86_64-linux-gnu/dri/radeonsi_dri.so
   obj:/usr/lib/x86_64-linux-gnu/dri/radeonsi_dri.so
   obj:/usr/lib/x86_64-linux-gnu/dri/radeonsi_dri.so
}
{
   <insert_a_suppression_name_here>
   Memcheck:Leak
   match-leak-kinds: reachable
   fun:malloc
   obj:/usr/lib/x86_64-linux-gnu/libLLVM-9.so.1
   fun:_ZN4llvm12PassRegistry12registerPassERKNS_8PassInfoEb
   obj:/usr/lib/x86_64-linux-gnu/libLLVM-9.so.1
   fun:__pthread_once_slow
   fun:_ZN4llvm41initializeMemoryDependenceWrapperPassPassERNS_12PassRegistryE
   obj:/usr/lib/x86_64-linux-gnu/libLLVM-9.so.1
   fun:__pthread_once_slow
   fun:_ZN4llvm41initializeAMDGPUAnnotateUniformValuesPassERNS_12PassRegistryE
   fun:LLVMInitializeAMDGPUTarget
   obj:/usr/lib/x86_64-linux-gnu/dri/radeonsi_dri.so
   fun:__pthread_once_slow
}
{
   <insert_a_suppression_name_here>
   Memcheck:Leak
   match-leak-kinds: reachable
   fun:malloc
   obj:/usr/lib/x86_64-linux-gnu/libLLVM-9.so.1
   fun:_ZN4llvm12PassRegistry12registerPassERKNS_8PassInfoEb
   obj:/usr/lib/x86_64-linux-gnu/libLLVM-9.so.1
   fun:__pthread_once_slow
   fun:_ZN4llvm29initializeSIWholeQuadModePassERNS_12PassRegistryE
   fun:LLVMInitializeAMDGPUTarget
   obj:/usr/lib/x86_64-linux-gnu/dri/radeonsi_dri.so
   fun:__pthread_once_slow
   obj:/usr/lib/x86_64-linux-gnu/dri/radeonsi_dri.so
   obj:/usr/lib/x86_64-linux-gnu/dri/radeonsi_dri.so
   obj:/usr/lib/x86_64-linux-gnu/dri/radeonsi_dri.so
}
{
   <insert_a_suppression_name_here>
   Memcheck:Leak
   match-leak-kinds: reachable
   fun:malloc
   obj:/usr/lib/x86_64-linux-gnu/libLLVM-9.so.1
   fun:_ZN4llvm12PassRegistry12registerPassERKNS_8PassInfoEb
   obj:/usr/lib/x86_64-linux-gnu/libLLVM-9.so.1
   fun:__pthread_once_slow
   fun:_ZN4llvm22initializeRAGreedyPassERNS_12PassRegistryE
   fun:_ZN4llvm17initializeCodeGenERNS_12PassRegistryE
   fun:_ZN4llvm16TargetPassConfigC1ERNS_17LLVMTargetMachineERNS_6legacy15PassManagerBaseE
   fun:_ZN4llvm16GCNTargetMachine16createPassConfigERNS_6legacy15PassManagerBaseE
   fun:_ZN4llvm17LLVMTargetMachine19addPassesToEmitFileERNS_6legacy15PassManagerBaseERNS_17raw_pwrite_streamEPS4_NS_13TargetMachine15CodeGenFileTypeEbPNS_17MachineModuleInfoE
   obj:/usr/lib/x86_64-linux-gnu/dri/radeonsi_dri.so
   obj:/usr/lib/x86_64-linux-gnu/dri/radeonsi_dri.so
}
{
   <insert_a_suppression_name_here>
   Memcheck:Leak
   match-leak-kinds: reachable
   fun:calloc
   obj:/usr/lib/x86_64-linux-gnu/libX11.so.6.3.0
   fun:_XlcCreateLC
   fun:_XlcDefaultLoader
   fun:_XOpenLC
   fun:_XlcCurrentLC
   fun:XSetLocaleModifiers
   obj:/usr/lib/x86_64-linux-gnu/libSDL2-2.0.so.0.10.0
   obj:/usr/lib/x86_64-linux-gnu/libSDL2-2.0.so.0.10.0
   obj:/usr/lib/x86_64-linux-gnu/libSDL2-2.0.so.0.10.0
   obj:/usr/lib/x86_64-linux-gnu/libSDL2-2.0.so.0.10.0
   fun:_ZN9SDLWindowC1Eii
}
{
   <insert_a_suppression_name_here>
   Memcheck:Leak
   match-leak-kinds: reachable
   fun:malloc
   fun:_XOpenLC
   fun:_XlcCurrentLC
   fun:XSetLocaleModifiers
   obj:/usr/lib/x86_64-linux-gnu/libSDL2-2.0.so.0.10.0
   obj:/usr/lib/x86_64-linux-gnu/libSDL2-2.0.so.0.10.0
   obj:/usr/lib/x86_64-linux-gnu/libSDL2-2.0.so.0.10.0
   obj:/usr/lib/x86_64-linux-gnu/libSDL2-2.0.so.0.10.0
   fun:_ZN9SDLWindowC1Eii
   fun:main
}
{
   <insert_a_suppression_name_here>
   Memcheck:Leak
   match-leak-kinds: reachable
   fun:malloc
   obj:/lib/x86_64-linux-gnu/libdbus-1.so.3.19.11
   fun:dbus_threads_init
   obj:/lib/x86_64-linux-gnu/libdbus-1.so.3.19.11
   obj:/lib/x86_64-linux-gnu/libdbus-1.so.3.19.11
   obj:/usr/lib/x86_64-linux-gnu/libSDL2-2.0.so.0.10.0
   obj:/usr/lib/x86_64-linux-gnu/libSDL2-2.0.so.0.10.0
   obj:/usr/lib/x86_64-linux-gnu/libSDL2-2.0.so.0.10.0
   obj:/usr/lib/x86_64-linux-gnu/libSDL2-2.0.so.0.10.0
   obj:/usr/lib/x86_64-linux-gnu/libSDL2-2.0.so.0.10.0
   obj:/usr/lib/x86_64-linux-gnu/libSDL2-2.0.so.0.10.0
   obj:/usr/lib/x86_64-linux-gnu/libSDL2-2.0.so.0.10.0
}
{
   <insert_a_suppression_name_here>
   Memcheck:Leak
   match-leak-kinds: reachable
   fun:malloc
   fun:_dbus_register_shutdown_func
   obj:/lib/x86_64-linux-gnu/libdbus-1.so.3.19.11
   obj:/usr/lib/x86_64-linux-gnu/libSDL2-2.0.so.0.10.0
   obj:/usr/lib/x86_64-linux-gnu/libSDL2-2.0.so.0.10.0
   obj:/usr/lib/x86_64-linux-gnu/libSDL2-2.0.so.0.10.0
   obj:/usr/lib/x86_64-linux-gnu/libSDL2-2.0.so.0.10.0
   obj:/usr/lib/x86_64-linux-gnu/libSDL2-2.0.so.0.10.0
   obj:/usr/lib/x86_64-linux-gnu/libSDL2-2.0.so.0.10.0
   obj:/usr/lib/x86_64-linux-gnu/libSDL2-2.0.so.0.10.0
   obj:/usr/lib/x86_64-linux-gnu/libSDL2-2.0.so.0.10.0
   fun:_ZN9SDLWindowC1Eii
}
{
   <insert_a_suppression_name_here>
   Memcheck:Leak
   match-leak-kinds: reachable
   fun:malloc
   fun:_dbus_register_shutdown_func
   fun:dbus_message_unref
   obj:/lib/x86_64-linux-gnu/libdbus-1.so.3.19.11
   fun:dbus_connection_send_with_reply_and_block
   fun:dbus_bus_register
   obj:/lib/x86_64-linux-gnu/libdbus-1.so.3.19.11
   obj:/usr/lib/x86_64-linux-gnu/libSDL2-2.0.so.0.10.0
   obj:/usr/lib/x86_64-linux-gnu/libSDL2-2.0.so.0.10.0
   obj:/usr/lib/x86_64-linux-gnu/libSDL2-2.0.so.0.10.0
   obj:/usr/lib/x86_64-linux-gnu/libSDL2-2.0.so.0.10.0
   obj:/usr/lib/x86_64-linux-gnu/libSDL2-2.0.so.0.10.0
}
{
   <insert_a_suppression_name_here>
   Memcheck:Leak
   match-leak-kinds: reachable
   fun:malloc
   obj:/usr/lib/x86_64-linux-gnu/libLLVM-9.so.1
   obj:/usr/lib/x86_64-linux-gnu/libLLVM-9.so.1
   obj:/usr/lib/x86_64-linux-gnu/libLLVM-9.so.1
   fun:call_init.part.0
   fun:call_init
   fun:_dl_init
   fun:_dl_catch_exception
   fun:dl_open_worker
   fun:_dl_catch_exception
   fun:_dl_open
   fun:dlopen_doit
   fun:_dl_catch_exception
}
{
   <insert_a_suppression_name_here>
   Memcheck:Leak
   match-leak-kinds: reachable
   fun:malloc
   obj:/usr/lib/x86_64-linux-gnu/libLLVM-9.so.1
   fun:_ZN4llvm12PassRegistry12registerPassERKNS_8PassInfoEb
   obj:/usr/lib/x86_64-linux-gnu/libLLVM-9.so.1
   fun:__pthread_once_slow
   fun:_ZN4llvm28initializeR600PacketizerPassERNS_12PassRegistryE
   fun:LLVMInitializeAMDGPUTarget
   obj:/usr/lib/x86_64-linux-gnu/dri/radeonsi_dri.so
   fun:__pthread_once_slow
   obj:/usr/lib/x86_64-linux-gnu/dri/radeonsi_dri.so
   obj:/usr/lib/x86_64-linux-gnu/dri/radeonsi_dri.so
   obj:/usr/lib/x86_64-linux-gnu/dri/radeonsi_dri.so
}
{
   <insert_a_suppression_name_here>
   Memcheck:Leak
   match-leak-kinds: reachable
   fun:malloc
   obj:/usr/lib/x86_64-linux-gnu/libLLVM-9.so.1
   fun:_ZN4llvm12PassRegistry12registerPassERKNS_8PassInfoEb
   obj:/usr/lib/x86_64-linux-gnu/libLLVM-9.so.1
   fun:__pthread_once_slow
   fun:_ZN4llvm41initializeGISelCSEAnalysisWrapperPassPassERNS_12PassRegistryE
   obj:/usr/lib/x86_64-linux-gnu/libLLVM-9.so.1
   fun:__pthread_once_slow
   fun:_ZN4llvm26initializeIRTranslatorPassERNS_12PassRegistryE
   fun:_ZN4llvm20initializeGlobalISelERNS_12PassRegistryE
   fun:LLVMInitializeAMDGPUTarget
   obj:/usr/lib/x86_64-linux-gnu/dri/radeonsi_dri.so
}
{
   <insert_a_suppression_name_here>
   Memcheck:Leak
   match-leak-kinds: reachable
   fun:malloc
   obj:/usr/lib/x86_64-linux-gnu/libLLVM-9.so.1
   fun:_ZN4llvm12PassRegistry12registerPassERKNS_8PassInfoEb
   obj:/usr/lib/x86_64-linux-gnu/libLLVM-9.so.1
   fun:__pthread_once_slow
   fun:_ZN4llvm38initializeDominatorTreeWrapperPassPassERNS_12PassRegistryE
   obj:/usr/lib/x86_64-linux-gnu/libLLVM-9.so.1
   fun:__pthread_once_slow
   fun:_ZN4llvm38initializeLegacyDivergenceAnalysisPassERNS_12PassRegistryE
   obj:/usr/lib/x86_64-linux-gnu/libLLVM-9.so.1
   fun:__pthread_once_slow
   fun:_ZN4llvm32initializeAMDGPUDAGToDAGISelPassERNS_12PassRegistryE
}
{
   <insert_a_suppression_name_here>
   Memcheck:Leak
   match-leak-kinds: reachable
   fun:malloc
   obj:/usr/lib/x86_64-linux-gnu/libLLVM-9.so.1
   fun:_ZN4llvm12PassRegistry12registerPassERKNS_8PassInfoEb
   obj:/usr/lib/x86_64-linux-gnu/libLLVM-9.so.1
   fun:__pthread_once_slow
   fun:_ZN4llvm32initializeBasicAAWrapperPassPassERNS_12PassRegistryE
   obj:/usr/lib/x86_64-linux-gnu/libLLVM-9.so.1
   fun:__pthread_once_slow
   fun:_ZN4llvm34initializeAAResultsWrapperPassPassERNS_12PassRegistryE
   obj:/usr/lib/x86_64-linux-gnu/libLLVM-9.so.1
   fun:__pthread_once_slow
   fun:_ZN4llvm27initializeLiveIntervalsPassERNS_12PassRegistryE
}
{
   <insert_a_suppression_name_here>
   Memcheck:Leak
   match-leak-kinds: reachable
   fun:malloc
   obj:/usr/lib/x86_64-linux-gnu/libLLVM-9.so.1
   fun:_ZN4llvm12PassRegistry12registerPassERKNS_8PassInfoEb
   obj:/usr/lib/x86_64-linux-gnu/libLLVM-9.so.1
   fun:__pthread_once_slow
   fun:_ZN4llvm34initializeCallGraphWrapperPassPassERNS_12PassRegistryE
   obj:/usr/lib/x86_64-linux-gnu/libLLVM-9.so.1
   fun:__pthread_once_slow
   fun:_ZN4llvm34initializeGlobalsAAWrapperPassPassERNS_12PassRegistryE
   obj:/usr/lib/x86_64-linux-gnu/libLLVM-9.so.1
   fun:__pthread_once_slow
   fun:_ZN4llvm34initializeAAResultsWrapperPassPassERNS_12PassRegistryE
}
{
   <insert_a_suppression_name_here>
   Memcheck:Leak
   match-leak-kinds: reachable
   fun:malloc
   obj:/usr/lib/x86_64-linux-gnu/libLLVM-9.so.1
   fun:_ZN4llvm12PassRegistry12registerPassERKNS_8PassInfoEb
   obj:/usr/lib/x86_64-linux-gnu/libLLVM-9.so.1
   fun:__pthread_once_slow
   fun:_ZN4llvm31initializeSCEVAAWrapperPassPassERNS_12PassRegistryE
   obj:/usr/lib/x86_64-linux-gnu/libLLVM-9.so.1
   fun:__pthread_once_slow
   fun:_ZN4llvm34initializeAAResultsWrapperPassPassERNS_12PassRegistryE
   obj:/usr/lib/x86_64-linux-gnu/libLLVM-9.so.1
   fun:__pthread_once_slow
   fun:_ZN4llvm27initializeLiveIntervalsPassERNS_12PassRegistryE
}
{
   <insert_a_suppression_name_here>
   Memcheck:Leak
   match-leak-kinds: reachable
   fun:malloc
   obj:/usr/lib/x86_64-linux-gnu/libLLVM-9.so.1
   fun:_ZN4llvm12PassRegistry12registerPassERKNS_8PassInfoEb
   obj:/usr/lib/x86_64-linux-gnu/libLLVM-9.so.1
   fun:__pthread_once_slow
   fun:_ZN4llvm21createBarrierNoopPassEv
   obj:/usr/lib/x86_64-linux-gnu/dri/radeonsi_dri.so
   obj:/usr/lib/x86_64-linux-gnu/dri/radeonsi_dri.so
   obj:/usr/lib/x86_64-linux-gnu/dri/radeonsi_dri.so
   obj:/usr/lib/x86_64-linux-gnu/dri/radeonsi_dri.so
   obj:/usr/lib/x86_64-linux-gnu/dri/radeonsi_dri.so
   obj:/usr/lib/x86_64-linux-gnu/dri/radeonsi_dri.so
}
{
   <insert_a_suppression_name_here>
   Memcheck:Leak
   match-leak-kinds: reachable
   fun:malloc
   obj:/usr/lib/x86_64-linux-gnu/libLLVM-9.so.1
   fun:_ZN4llvm12PassRegistry12registerPassERKNS_8PassInfoEb
   obj:/usr/lib/x86_64-linux-gnu/libLLVM-9.so.1
   fun:__pthread_once_slow
   fun:_ZN4llvm33createPromoteMemoryToRegisterPassEv
   fun:LLVMAddPromoteMemoryToRegisterPass
   obj:/usr/lib/x86_64-linux-gnu/dri/radeonsi_dri.so
   obj:/usr/lib/x86_64-linux-gnu/dri/radeonsi_dri.so
   obj:/usr/lib/x86_64-linux-gnu/dri/radeonsi_dri.so
   obj:/usr/lib/x86_64-linux-gnu/dri/radeonsi_dri.so
   obj:/usr/lib/x86_64-linux-gnu/dri/radeonsi_dri.so
}
{
   <insert_a_suppression_name_here>
   Memcheck:Leak
   match-leak-kinds: reachable
   fun:malloc
   obj:/usr/lib/x86_64-linux-gnu/libLLVM-9.so.1
   fun:_ZN4llvm12PassRegistry12registerPassERKNS_8PassInfoEb
   obj:/usr/lib/x86_64-linux-gnu/libLLVM-9.so.1
   fun:__pthread_once_slow
   fun:_ZN4llvm28initializeRegionInfoPassPassERNS_12PassRegistryE
   obj:/usr/lib/x86_64-linux-gnu/libLLVM-9.so.1
   fun:__pthread_once_slow
   obj:/usr/lib/x86_64-linux-gnu/libLLVM-9.so.1
   fun:_ZN4llvm24createStructurizeCFGPassEb
   obj:/usr/lib/x86_64-linux-gnu/libLLVM-9.so.1
   fun:_ZN4llvm16TargetPassConfig14addISelPrepareEv
}
{
   <insert_a_suppression_name_here>
   Memcheck:Leak
   match-leak-kinds: reachable
   fun:_Znwm
   obj:/usr/lib/x86_64-linux-gnu/libLLVM-9.so.1
   fun:_ZNK4llvm17ManagedStaticBase21RegisterManagedStaticEPFPvvEPFvS1_E
   fun:_ZN4llvm6SDNode16getValueTypeListENS_3EVTE
   fun:_ZN4llvm12SelectionDAGC1ERKNS_13TargetMachineENS_10CodeGenOpt5LevelE
   fun:_ZN4llvm16SelectionDAGISelC2ERNS_13TargetMachineENS_10CodeGenOpt5LevelE
   fun:_ZN4llvm19createAMDGPUISelDagEPNS_13TargetMachineENS_10CodeGenOpt5LevelE
   obj:/usr/lib/x86_64-linux-gnu/libLLVM-9.so.1
   fun:_ZN4llvm16TargetPassConfig17addCoreISelPassesEv
   fun:_ZN4llvm16TargetPassConfig13addISelPassesEv
   fun:_ZN4llvm17LLVMTargetMachine19addPassesToEmitFileERNS_6legacy15PassManagerBaseERNS_17raw_pwrite_streamEPS4_NS_13TargetMachine15CodeGenFileTypeEbPNS_17MachineModuleInfoE
   obj:/usr/lib/x86_64-linux-gnu/dri/radeonsi_dri.so
}
{
   <insert_a_suppression_name_here>
   Memcheck:Leak
   match-leak-kinds: reachable
   fun:malloc
   obj:/usr/lib/x86_64-linux-gnu/libLLVM-9.so.1
   fun:_ZN4llvm12PassRegistry12registerPassERKNS_8PassInfoEb
   obj:/usr/lib/x86_64-linux-gnu/libLLVM-9.so.1
   fun:__pthread_once_slow
   fun:_ZN4llvm29initializeLiveRangeShrinkPassERNS_12PassRegistryE
   fun:_ZN4llvm17initializeCodeGenERNS_12PassRegistryE
   fun:_ZN4llvm16TargetPassConfigC1ERNS_17LLVMTargetMachineERNS_6legacy15PassManagerBaseE
   fun:_ZN4llvm16GCNTargetMachine16createPassConfigERNS_6legacy15PassManagerBaseE
   fun:_ZN4llvm17LLVMTargetMachine19addPassesToEmitFileERNS_6legacy15PassManagerBaseERNS_17raw_pwrite_streamEPS4_NS_13TargetMachine15CodeGenFileTypeEbPNS_17MachineModuleInfoE
   obj:/usr/lib/x86_64-linux-gnu/dri/radeonsi_dri.so
   obj:/usr/lib/x86_64-linux-gnu/dri/radeonsi_dri.so
}
{
   <insert_a_suppression_name_here>
   Memcheck:Leak
   match-leak-kinds: reachable
   fun:malloc
   obj:/usr/lib/x86_64-linux-gnu/libLLVM-9.so.1
   fun:_ZN4llvm12PassRegistry12registerPassERKNS_8PassInfoEb
   obj:/usr/lib/x86_64-linux-gnu/libLLVM-9.so.1
   fun:__pthread_once_slow
   fun:_ZN4llvm27initializeLiveVariablesPassERNS_12PassRegistryE
   fun:_ZN4llvm17initializeCodeGenERNS_12PassRegistryE
   fun:_ZN4llvm16TargetPassConfigC1ERNS_17LLVMTargetMachineERNS_6legacy15PassManagerBaseE
   fun:_ZN4llvm16GCNTargetMachine16createPassConfigERNS_6legacy15PassManagerBaseE
   fun:_ZN4llvm17LLVMTargetMachine19addPassesToEmitFileERNS_6legacy15PassManagerBaseERNS_17raw_pwrite_streamEPS4_NS_13TargetMachine15CodeGenFileTypeEbPNS_17MachineModuleInfoE
   obj:/usr/lib/x86_64-linux-gnu/dri/radeonsi_dri.so
   obj:/usr/lib/x86_64-linux-gnu/dri/radeonsi_dri.so
}
{
   <insert_a_suppression_name_here>
   Memcheck:Leak
   match-leak-kinds: reachable
   fun:malloc
   obj:/usr/lib/x86_64-linux-gnu/libLLVM-9.so.1
   fun:_ZN4llvm12PassRegistry12registerPassERKNS_8PassInfoEb
   obj:/usr/lib/x86_64-linux-gnu/libLLVM-9.so.1
   fun:__pthread_once_slow
   fun:_ZN4llvm26initializeOptimizePHIsPassERNS_12PassRegistryE
   fun:_ZN4llvm17initializeCodeGenERNS_12PassRegistryE
   fun:_ZN4llvm16TargetPassConfigC1ERNS_17LLVMTargetMachineERNS_6legacy15PassManagerBaseE
   fun:_ZN4llvm16GCNTargetMachine16createPassConfigERNS_6legacy15PassManagerBaseE
   fun:_ZN4llvm17LLVMTargetMachine19addPassesToEmitFileERNS_6legacy15PassManagerBaseERNS_17raw_pwrite_streamEPS4_NS_13TargetMachine15CodeGenFileTypeEbPNS_17MachineModuleInfoE
   obj:/usr/lib/x86_64-linux-gnu/dri/radeonsi_dri.so
   obj:/usr/lib/x86_64-linux-gnu/dri/radeonsi_dri.so
}
{
   <insert_a_suppression_name_here>
   Memcheck:Leak
   match-leak-kinds: reachable
   fun:malloc
   obj:/usr/lib/x86_64-linux-gnu/libLLVM-9.so.1
   fun:_ZN4llvm12PassRegistry12registerPassERKNS_8PassInfoEb
   obj:/usr/lib/x86_64-linux-gnu/libLLVM-9.so.1
   fun:__pthread_once_slow
   fun:_ZN4llvm32initializeIVUsersWrapperPassPassERNS_12PassRegistryE
   obj:/usr/lib/x86_64-linux-gnu/libLLVM-9.so.1
   fun:__pthread_once_slow
   fun:_ZN4llvm28createLoopStrengthReducePassEv
   fun:_ZN4llvm16TargetPassConfig11addIRPassesEv
   obj:/usr/lib/x86_64-linux-gnu/libLLVM-9.so.1
   fun:_ZN4llvm16TargetPassConfig13addISelPassesEv
}
{
   <insert_a_suppression_name_here>
   Memcheck:Leak
   match-leak-kinds: reachable
   fun:malloc
   obj:/usr/lib/x86_64-linux-gnu/libLLVM-9.so.1
   fun:_ZN4llvm12PassRegistry12registerPassERKNS_8PassInfoEb
   obj:/usr/lib/x86_64-linux-gnu/libLLVM-9.so.1
   fun:__pthread_once_slow
   fun:_ZN4llvm23initializeLegalizerPassERNS_12PassRegistryE
   fun:_ZN4llvm20initializeGlobalISelERNS_12PassRegistryE
   fun:LLVMInitializeAMDGPUTarget
   obj:/usr/lib/x86_64-linux-gnu/dri/radeonsi_dri.so
   fun:__pthread_once_slow
   obj:/usr/lib/x86_64-linux-gnu/dri/radeonsi_dri.so
   obj:/usr/lib/x86_64-linux-gnu/dri/radeonsi_dri.so
}
{
   <insert_a_suppression_name_here>
   Memcheck:Leak
   match-leak-kinds: reachable
   fun:malloc
   obj:/usr/lib/x86_64-linux-gnu/libLLVM-9.so.1
   fun:_ZN4llvm12PassRegistry12registerPassERKNS_8PassInfoEb
   obj:/usr/lib/x86_64-linux-gnu/libLLVM-9.so.1
   fun:__pthread_once_slow
   fun:_ZN4llvm23initializeLocalizerPassERNS_12PassRegistryE
   fun:_ZN4llvm20initializeGlobalISelERNS_12PassRegistryE
   fun:LLVMInitializeAMDGPUTarget
   obj:/usr/lib/x86_64-linux-gnu/dri/radeonsi_dri.so
   fun:__pthread_once_slow
   obj:/usr/lib/x86_64-linux-gnu/dri/radeonsi_dri.so
   obj:/usr/lib/x86_64-linux-gnu/dri/radeonsi_dri.so
}
{
   <insert_a_suppression_name_here>
   Memcheck:Leak
   match-leak-kinds: reachable
   fun:malloc
   obj:/usr/lib/x86_64-linux-gnu/libLLVM-9.so.1
   fun:_ZN4llvm12PassRegistry12registerPassERKNS_8PassInfoEb
   obj:/usr/lib/x86_64-linux-gnu/libLLVM-9.so.1
   fun:__pthread_once_slow
   fun:_ZN4llvm33initializeAMDGPUAAWrapperPassPassERNS_12PassRegistryE
   fun:LLVMInitializeAMDGPUTarget
   obj:/usr/lib/x86_64-linux-gnu/dri/radeonsi_dri.so
   fun:__pthread_once_slow
   obj:/usr/lib/x86_64-linux-gnu/dri/radeonsi_dri.so
   obj:/usr/lib/x86_64-linux-gnu/dri/radeonsi_dri.so
   obj:/usr/lib/x86_64-linux-gnu/dri/radeonsi_dri.so
}
{
   <insert_a_suppression_name_here>
   Memcheck:Leak
   match-leak-kinds: reachable
   fun:malloc
   obj:/usr/lib/x86_64-linux-gnu/libLLVM-9.so.1
   fun:_ZN4llvm12PassRegistry12registerPassERKNS_8PassInfoEb
   obj:/usr/lib/x86_64-linux-gnu/libLLVM-9.so.1
   fun:__pthread_once_slow
   fun:_ZN4llvm34initializeMemorySSAWrapperPassPassERNS_12PassRegistryE
   obj:/usr/lib/x86_64-linux-gnu/libLLVM-9.so.1
   fun:__pthread_once_slow
   fun:_ZN4llvm14createLICMPassEv
   fun:LLVMAddLICMPass
   obj:/usr/lib/x86_64-linux-gnu/dri/radeonsi_dri.so
   obj:/usr/lib/x86_64-linux-gnu/dri/radeonsi_dri.so
}
{
   <insert_a_suppression_name_here>
   Memcheck:Leak
   match-leak-kinds: reachable
   fun:malloc
   obj:/usr/lib/x86_64-linux-gnu/libLLVM-9.so.1
   fun:_ZN4llvm12PassRegistry12registerPassERKNS_8PassInfoEb
   obj:/usr/lib/x86_64-linux-gnu/libLLVM-9.so.1
   fun:__pthread_once_slow
   fun:_ZN4llvm30initializeMachinePipelinerPassERNS_12PassRegistryE
   fun:_ZN4llvm17initializeCodeGenERNS_12PassRegistryE
   fun:_ZN4llvm16TargetPassConfigC1ERNS_17LLVMTargetMachineERNS_6legacy15PassManagerBaseE
   fun:_ZN4llvm16GCNTargetMachine16createPassConfigERNS_6legacy15PassManagerBaseE
   fun:_ZN4llvm17LLVMTargetMachine19addPassesToEmitFileERNS_6legacy15PassManagerBaseERNS_17raw_pwrite_streamEPS4_NS_13TargetMachine15CodeGenFileTypeEbPNS_17MachineModuleInfoE
   obj:/usr/lib/x86_64-linux-gnu/dri/radeonsi_dri.so
   obj:/usr/lib/x86_64-linux-gnu/dri/radeonsi_dri.so
}
{
   <insert_a_suppression_name_here>
   Memcheck:Leak
   match-leak-kinds: reachable
   fun:malloc
   obj:/usr/lib/x86_64-linux-gnu/libLLVM-9.so.1
   fun:_ZN4llvm12PassRegistry12registerPassERKNS_8PassInfoEb
   obj:/usr/lib/x86_64-linux-gnu/libLLVM-9.so.1
   fun:__pthread_once_slow
   fun:_ZN4llvm18createEarlyCSEPassEb
   obj:/usr/lib/x86_64-linux-gnu/libLLVM-9.so.1
   fun:_ZN4llvm16TargetPassConfig13addISelPassesEv
   fun:_ZN4llvm17LLVMTargetMachine19addPassesToEmitFileERNS_6legacy15PassManagerBaseERNS_17raw_pwrite_streamEPS4_NS_13TargetMachine15CodeGenFileTypeEbPNS_17MachineModuleInfoE
   obj:/usr/lib/x86_64-linux-gnu/dri/radeonsi_dri.so
   obj:/usr/lib/x86_64-linux-gnu/dri/radeonsi_dri.so
   obj:/usr/lib/x86_64-linux-gnu/dri/radeonsi_dri.so
}
{
   <insert_a_suppression_name_here>
   Memcheck:Leak
   match-leak-kinds: reachable
   fun:malloc
   obj:/usr/lib/x86_64-linux-gnu/libLLVM-9.so.1
   fun:_ZN4llvm12PassRegistry12registerPassERKNS_8PassInfoEb
   obj:/usr/lib/x86_64-linux-gnu/libLLVM-9.so.1
   fun:__pthread_once_slow
   fun:_ZN4llvm33initializeR600VectorRegMergerPassERNS_12PassRegistryE
   fun:LLVMInitializeAMDGPUTarget
   obj:/usr/lib/x86_64-linux-gnu/dri/radeonsi_dri.so
   fun:__pthread_once_slow
   obj:/usr/lib/x86_64-linux-gnu/dri/radeonsi_dri.so
   obj:/usr/lib/x86_64-linux-gnu/dri/radeonsi_dri.so
   obj:/usr/lib/x86_64-linux-gnu/dri/radeonsi_dri.so
}
{
   <insert_a_suppression_name_here>
   Memcheck:Leak
   match-leak-kinds: reachable
   fun:malloc
   obj:/usr/lib/x86_64-linux-gnu/libLLVM-9.so.1
   fun:_ZN4llvm12PassRegistry12registerPassERKNS_8PassInfoEb
   obj:/usr/lib/x86_64-linux-gnu/libLLVM-9.so.1
   fun:__pthread_once_slow
   fun:_ZN4llvm38initializeLegacyDivergenceAnalysisPassERNS_12PassRegistryE
   obj:/usr/lib/x86_64-linux-gnu/libLLVM-9.so.1
   fun:__pthread_once_slow
   fun:_ZN4llvm32initializeAMDGPUDAGToDAGISelPassERNS_12PassRegistryE
   fun:LLVMInitializeAMDGPUTarget
   obj:/usr/lib/x86_64-linux-gnu/dri/radeonsi_dri.so
   fun:__pthread_once_slow
}
{
   <insert_a_suppression_name_here>
   Memcheck:Leak
   match-leak-kinds: reachable
   fun:malloc
   obj:/usr/lib/x86_64-linux-gnu/libLLVM-9.so.1
   fun:_ZN4llvm12PassRegistry12registerPassERKNS_8PassInfoEb
   obj:/usr/lib/x86_64-linux-gnu/libLLVM-9.so.1
   fun:__pthread_once_slow
   fun:_ZN4llvm24initializeVirtRegMapPassERNS_12PassRegistryE
   obj:/usr/lib/x86_64-linux-gnu/libLLVM-9.so.1
   fun:__pthread_once_slow
   fun:_ZN4llvm31initializeSILowerSGPRSpillsPassERNS_12PassRegistryE
   fun:LLVMInitializeAMDGPUTarget
   obj:/usr/lib/x86_64-linux-gnu/dri/radeonsi_dri.so
   fun:__pthread_once_slow
}
{
   <insert_a_suppression_name_here>
   Memcheck:Leak
   match-leak-kinds: reachable
   fun:malloc
   obj:/usr/lib/x86_64-linux-gnu/libLLVM-9.so.1
   fun:_ZN4llvm12PassRegistry12registerPassERKNS_8PassInfoEb
   obj:/usr/lib/x86_64-linux-gnu/libLLVM-9.so.1
   fun:__pthread_once_slow
   fun:_ZN4llvm34initializeGlobalsAAWrapperPassPassERNS_12PassRegistryE
   obj:/usr/lib/x86_64-linux-gnu/libLLVM-9.so.1
   fun:__pthread_once_slow
   fun:_ZN4llvm34initializeAAResultsWrapperPassPassERNS_12PassRegistryE
   obj:/usr/lib/x86_64-linux-gnu/libLLVM-9.so.1
   fun:__pthread_once_slow
   fun:_ZN4llvm27initializeLiveIntervalsPassERNS_12PassRegistryE
}
{
   <insert_a_suppression_name_here>
   Memcheck:Leak
   match-leak-kinds: reachable
   fun:malloc
   obj:/usr/lib/x86_64-linux-gnu/libLLVM-9.so.1
   fun:_ZN4llvm12PassRegistry12registerPassERKNS_8PassInfoEb
   obj:/usr/lib/x86_64-linux-gnu/libLLVM-9.so.1
   fun:__pthread_once_slow
   fun:_ZN4llvm34initializePhiValuesWrapperPassPassERNS_12PassRegistryE
   obj:/usr/lib/x86_64-linux-gnu/libLLVM-9.so.1
   fun:__pthread_once_slow
   fun:_ZN4llvm41initializeMemoryDependenceWrapperPassPassERNS_12PassRegistryE
   obj:/usr/lib/x86_64-linux-gnu/libLLVM-9.so.1
   fun:__pthread_once_slow
   fun:_ZN4llvm41initializeAMDGPUAnnotateUniformValuesPassERNS_12PassRegistryE
}
{
   <insert_a_suppression_name_here>
   Memcheck:Leak
   match-leak-kinds: reachable
   fun:malloc
   obj:/usr/lib/x86_64-linux-gnu/libLLVM-9.so.1
   fun:_ZN4llvm12PassRegistry12registerPassERKNS_8PassInfoEb
   obj:/usr/lib/x86_64-linux-gnu/libLLVM-9.so.1
   fun:__pthread_once_slow
   fun:_ZN4llvm24initializeLiveStacksPassERNS_12PassRegistryE
   fun:_ZN4llvm17initializeCodeGenERNS_12PassRegistryE
   fun:_ZN4llvm16TargetPassConfigC1ERNS_17LLVMTargetMachineERNS_6legacy15PassManagerBaseE
   fun:_ZN4llvm16GCNTargetMachine16createPassConfigERNS_6legacy15PassManagerBaseE
   fun:_ZN4llvm17LLVMTargetMachine19addPassesToEmitFileERNS_6legacy15PassManagerBaseERNS_17raw_pwrite_streamEPS4_NS_13TargetMachine15CodeGenFileTypeEbPNS_17MachineModuleInfoE
   obj:/usr/lib/x86_64-linux-gnu/dri/radeonsi_dri.so
   obj:/usr/lib/x86_64-linux-gnu/dri/radeonsi_dri.so
}
{
   <insert_a_suppression_name_here>
   Memcheck:Leak
   match-leak-kinds: reachable
   fun:malloc
   obj:/usr/lib/x86_64-linux-gnu/libLLVM-9.so.1
   fun:_ZN4llvm12PassRegistry12registerPassERKNS_8PassInfoEb
   obj:/usr/lib/x86_64-linux-gnu/libLLVM-9.so.1
   fun:__pthread_once_slow
   fun:_ZN4llvm36initializeMachineCopyPropagationPassERNS_12PassRegistryE
   fun:_ZN4llvm17initializeCodeGenERNS_12PassRegistryE
   fun:_ZN4llvm16TargetPassConfigC1ERNS_17LLVMTargetMachineERNS_6legacy15PassManagerBaseE
   fun:_ZN4llvm16GCNTargetMachine16createPassConfigERNS_6legacy15PassManagerBaseE
   fun:_ZN4llvm17LLVMTargetMachine19addPassesToEmitFileERNS_6legacy15PassManagerBaseERNS_17raw_pwrite_streamEPS4_NS_13TargetMachine15CodeGenFileTypeEbPNS_17MachineModuleInfoE
   obj:/usr/lib/x86_64-linux-gnu/dri/radeonsi_dri.so
   obj:/usr/lib/x86_64-linux-gnu/dri/radeonsi_dri.so
}
{
   <insert_a_suppression_name_here>
   Memcheck:Leak
   match-leak-kinds: reachable
   fun:malloc
   obj:/usr/lib/x86_64-linux-gnu/libLLVM-9.so.1
   fun:_ZN4llvm12PassRegistry12registerPassERKNS_8PassInfoEb
   obj:/usr/lib/x86_64-linux-gnu/libLLVM-9.so.1
   fun:__pthread_once_slow
   fun:_ZN4llvm33initializeSafeStackLegacyPassPassERNS_12PassRegistryE
   fun:_ZN4llvm17initializeCodeGenERNS_12PassRegistryE
   fun:_ZN4llvm16TargetPassConfigC1ERNS_17LLVMTargetMachineERNS_6legacy15PassManagerBaseE
   fun:_ZN4llvm16GCNTargetMachine16createPassConfigERNS_6legacy15PassManagerBaseE
   fun:_ZN4llvm17LLVMTargetMachine19addPassesToEmitFileERNS_6legacy15PassManagerBaseERNS_17raw_pwrite_streamEPS4_NS_13TargetMachine15CodeGenFileTypeEbPNS_17MachineModuleInfoE
   obj:/usr/lib/x86_64-linux-gnu/dri/radeonsi_dri.so
   obj:/usr/lib/x86_64-linux-gnu/dri/radeonsi_dri.so
}
{
   <insert_a_suppression_name_here>
   Memcheck:Leak
   match-leak-kinds: reachable
   fun:malloc
   obj:/usr/lib/x86_64-linux-gnu/libLLVM-9.so.1
   fun:_ZN4llvm12PassRegistry12registerPassERKNS_8PassInfoEb
   obj:/usr/lib/x86_64-linux-gnu/libLLVM-9.so.1
   fun:__pthread_once_slow
   fun:_ZN4llvm26createMergeICmpsLegacyPassEv
   fun:_ZN4llvm16TargetPassConfig11addIRPassesEv
   obj:/usr/lib/x86_64-linux-gnu/libLLVM-9.so.1
   fun:_ZN4llvm16TargetPassConfig13addISelPassesEv
   fun:_ZN4llvm17LLVMTargetMachine19addPassesToEmitFileERNS_6legacy15PassManagerBaseERNS_17raw_pwrite_streamEPS4_NS_13TargetMachine15CodeGenFileTypeEbPNS_17MachineModuleInfoE
   obj:/usr/lib/x86_64-linux-gnu/dri/radeonsi_dri.so
   obj:/usr/lib/x86_64-linux-gnu/dri/radeonsi_dri.so
}
{
   <insert_a_suppression_name_here>
   Memcheck:Leak
   match-leak-kinds: reachable
   fun:malloc
   obj:/usr/lib/x86_64-linux-gnu/libLLVM-9.so.1
   fun:_ZN4llvm12PassRegistry12registerPassERKNS_8PassInfoEb
   obj:/usr/lib/x86_64-linux-gnu/libLLVM-9.so.1
   fun:__pthread_once_slow
   fun:_ZN4llvm43initializeBlockFrequencyInfoWrapperPassPassERNS_12PassRegistryE
   obj:/usr/lib/x86_64-linux-gnu/libLLVM-9.so.1
   fun:__pthread_once_slow
   fun:_ZN4llvm26createConstantHoistingPassEv
   fun:_ZN4llvm16TargetPassConfig11addIRPassesEv
   obj:/usr/lib/x86_64-linux-gnu/libLLVM-9.so.1
   fun:_ZN4llvm16TargetPassConfig13addISelPassesEv
}
{
   <insert_a_suppression_name_here>
   Memcheck:Leak
   match-leak-kinds: reachable
   fun:malloc
   obj:/usr/lib/x86_64-linux-gnu/libLLVM-9.so.1
   fun:_ZN4llvm12PassRegistry12registerPassERKNS_8PassInfoEb
   obj:/usr/lib/x86_64-linux-gnu/libLLVM-9.so.1
   fun:__pthread_once_slow
   fun:_ZN4llvm26createConstantHoistingPassEv
   fun:_ZN4llvm16TargetPassConfig11addIRPassesEv
   obj:/usr/lib/x86_64-linux-gnu/libLLVM-9.so.1
   fun:_ZN4llvm16TargetPassConfig13addISelPassesEv
   fun:_ZN4llvm17LLVMTargetMachine19addPassesToEmitFileERNS_6legacy15PassManagerBaseERNS_17raw_pwrite_streamEPS4_NS_13TargetMachine15CodeGenFileTypeEbPNS_17MachineModuleInfoE
   obj:/usr/lib/x86_64-linux-gnu/dri/radeonsi_dri.so
   obj:/usr/lib/x86_64-linux-gnu/dri/radeonsi_dri.so
}
{
   <insert_a_suppression_name_here>
   Memcheck:Leak
   match-leak-kinds: reachable
   fun:malloc
   obj:/usr/lib/x86_64-linux-gnu/libLLVM-9.so.1
   fun:_ZN4llvm12PassRegistry12registerPassERKNS_8PassInfoEb
   obj:/usr/lib/x86_64-linux-gnu/libLLVM-9.so.1
   fun:__pthread_once_slow
   fun:_ZN4llvm20createFlattenCFGPassEv
   obj:/usr/lib/x86_64-linux-gnu/libLLVM-9.so.1
   fun:_ZN4llvm16TargetPassConfig14addISelPrepareEv
   fun:_ZN4llvm16TargetPassConfig13addISelPassesEv
   fun:_ZN4llvm17LLVMTargetMachine19addPassesToEmitFileERNS_6legacy15PassManagerBaseERNS_17raw_pwrite_streamEPS4_NS_13TargetMachine15CodeGenFileTypeEbPNS_17MachineModuleInfoE
   obj:/usr/lib/x86_64-linux-gnu/dri/radeonsi_dri.so
   obj:/usr/lib/x86_64-linux-gnu/dri/radeonsi_dri.so
}
{
   <insert_a_suppression_name_here>
   Memcheck:Leak
   match-leak-kinds: reachable
   fun:malloc
   obj:/usr/lib/x86_64-linux-gnu/libLLVM-9.so.1
   fun:_ZN4llvm12PassRegistry12registerPassERKNS_8PassInfoEb
   obj:/usr/lib/x86_64-linux-gnu/libLLVM-9.so.1
   fun:__pthread_once_slow
   fun:_ZN4llvm42initializePostDominatorTreeWrapperPassPassERNS_12PassRegistryE
   obj:/usr/lib/x86_64-linux-gnu/libLLVM-9.so.1
   fun:__pthread_once_slow
   fun:_ZN4llvm38initializeLegacyDivergenceAnalysisPassERNS_12PassRegistryE
   obj:/usr/lib/x86_64-linux-gnu/libLLVM-9.so.1
   fun:__pthread_once_slow
   fun:_ZN4llvm32initializeAMDGPUDAGToDAGISelPassERNS_12PassRegistryE
}
{
   <insert_a_suppression_name_here>
   Memcheck:Leak
   match-leak-kinds: reachable
   fun:malloc
   obj:/usr/lib/x86_64-linux-gnu/libLLVM-9.so.1
   fun:_ZN4llvm12PassRegistry12registerPassERKNS_8PassInfoEb
   obj:/usr/lib/x86_64-linux-gnu/libLLVM-9.so.1
   fun:__pthread_once_slow
   fun:_ZN4llvm32initializeAMDGPUDAGToDAGISelPassERNS_12PassRegistryE
   fun:LLVMInitializeAMDGPUTarget
   obj:/usr/lib/x86_64-linux-gnu/dri/radeonsi_dri.so
   fun:__pthread_once_slow
   obj:/usr/lib/x86_64-linux-gnu/dri/radeonsi_dri.so
   obj:/usr/lib/x86_64-linux-gnu/dri/radeonsi_dri.so
   obj:/usr/lib/x86_64-linux-gnu/dri/radeonsi_dri.so
}
{
   <insert_a_suppression_name_here>
   Memcheck:Leak
   match-leak-kinds: reachable
   fun:malloc
   obj:/usr/lib/x86_64-linux-gnu/libLLVM-9.so.1
   fun:_ZN4llvm12PassRegistry12registerPassERKNS_8PassInfoEb
   obj:/usr/lib/x86_64-linux-gnu/libLLVM-9.so.1
   fun:__pthread_once_slow
   obj:/usr/lib/x86_64-linux-gnu/libLLVM-9.so.1
   fun:__pthread_once_slow
   fun:_ZN4llvm34initializeAAResultsWrapperPassPassERNS_12PassRegistryE
   obj:/usr/lib/x86_64-linux-gnu/libLLVM-9.so.1
   fun:__pthread_once_slow
   fun:_ZN4llvm27initializeLiveIntervalsPassERNS_12PassRegistryE
   obj:/usr/lib/x86_64-linux-gnu/libLLVM-9.so.1
}
{
   <insert_a_suppression_name_here>
   Memcheck:Leak
   match-leak-kinds: reachable
   fun:malloc
   obj:/usr/lib/x86_64-linux-gnu/libLLVM-9.so.1
   fun:_ZN4llvm12PassRegistry12registerPassERKNS_8PassInfoEb
   obj:/usr/lib/x86_64-linux-gnu/libLLVM-9.so.1
   fun:__pthread_once_slow
   fun:_ZN4llvm34initializeObjCARCAAWrapperPassPassERNS_12PassRegistryE
   obj:/usr/lib/x86_64-linux-gnu/libLLVM-9.so.1
   fun:__pthread_once_slow
   fun:_ZN4llvm34initializeAAResultsWrapperPassPassERNS_12PassRegistryE
   obj:/usr/lib/x86_64-linux-gnu/libLLVM-9.so.1
   fun:__pthread_once_slow
   fun:_ZN4llvm27initializeLiveIntervalsPassERNS_12PassRegistryE
}
{
   <insert_a_suppression_name_here>
   Memcheck:Leak
   match-leak-kinds: reachable
   fun:malloc
   obj:/usr/lib/x86_64-linux-gnu/libLLVM-9.so.1
   fun:_ZN4llvm12PassRegistry12registerPassERKNS_8PassInfoEb
   obj:/usr/lib/x86_64-linux-gnu/libLLVM-9.so.1
   fun:__pthread_once_slow
   fun:_ZN4llvm25initializeSlotIndexesPassERNS_12PassRegistryE
   obj:/usr/lib/x86_64-linux-gnu/libLLVM-9.so.1
   fun:__pthread_once_slow
   fun:_ZN4llvm27initializeLiveIntervalsPassERNS_12PassRegistryE
   obj:/usr/lib/x86_64-linux-gnu/libLLVM-9.so.1
   fun:__pthread_once_slow
   fun:_ZN4llvm40initializeSIOptimizeExecMaskingPreRAPassERNS_12PassRegistryE
}
{
   <insert_a_suppression_name_here>
   Memcheck:Leak
   match-leak-kinds: reachable
   fun:malloc
   obj:/usr/lib/x86_64-linux-gnu/libLLVM-9.so.1
   fun:_ZN4llvm12PassRegistry12registerPassERKNS_8PassInfoEb
   obj:/usr/lib/x86_64-linux-gnu/libLLVM-9.so.1
   fun:__pthread_once_slow
   obj:/usr/lib/x86_64-linux-gnu/libLLVM-9.so.1
   fun:_ZN4llvm27createCFGSimplificationPassEjbbbbSt8functionIFbRKNS_8FunctionEEE
   fun:LLVMAddCFGSimplificationPass
   obj:/usr/lib/x86_64-linux-gnu/dri/radeonsi_dri.so
   obj:/usr/lib/x86_64-linux-gnu/dri/radeonsi_dri.so
   obj:/usr/lib/x86_64-linux-gnu/dri/radeonsi_dri.so
   obj:/usr/lib/x86_64-linux-gnu/dri/radeonsi_dri.so
}
{
   <insert_a_suppression_name_here>
   Memcheck:Leak
   match-leak-kinds: reachable
   fun:malloc
   obj:/usr/lib/x86_64-linux-gnu/libLLVM-9.so.1
   fun:_ZN4llvm12PassRegistry12registerPassERKNS_8PassInfoEb
   obj:/usr/lib/x86_64-linux-gnu/libLLVM-9.so.1
   fun:__pthread_once_slow
   fun:LLVMAddInstructionCombiningPass
   obj:/usr/lib/x86_64-linux-gnu/dri/radeonsi_dri.so
   obj:/usr/lib/x86_64-linux-gnu/dri/radeonsi_dri.so
   obj:/usr/lib/x86_64-linux-gnu/dri/radeonsi_dri.so
   obj:/usr/lib/x86_64-linux-gnu/dri/radeonsi_dri.so
   obj:/usr/lib/x86_64-linux-gnu/dri/radeonsi_dri.so
   fun:start_thread
}
{
   <insert_a_suppression_name_here>
   Memcheck:Leak
   match-leak-kinds: reachable
   fun:malloc
   obj:/usr/lib/x86_64-linux-gnu/libLLVM-9.so.1
   fun:_ZN4llvm12PassRegistry12registerPassERKNS_8PassInfoEb
   obj:/usr/lib/x86_64-linux-gnu/libLLVM-9.so.1
   fun:__pthread_once_slow
   fun:_ZN4llvm30initializeEarlyIfConverterPassERNS_12PassRegistryE
   fun:_ZN4llvm17initializeCodeGenERNS_12PassRegistryE
   fun:_ZN4llvm16TargetPassConfigC1ERNS_17LLVMTargetMachineERNS_6legacy15PassManagerBaseE
   fun:_ZN4llvm16GCNTargetMachine16createPassConfigERNS_6legacy15PassManagerBaseE
   fun:_ZN4llvm17LLVMTargetMachine19addPassesToEmitFileERNS_6legacy15PassManagerBaseERNS_17raw_pwrite_streamEPS4_NS_13TargetMachine15CodeGenFileTypeEbPNS_17MachineModuleInfoE
   obj:/usr/lib/x86_64-linux-gnu/dri/radeonsi_dri.so
   obj:/usr/lib/x86_64-linux-gnu/dri/radeonsi_dri.so
}
{
   <insert_a_suppression_name_here>
   Memcheck:Leak
   match-leak-kinds: reachable
   fun:malloc
   obj:/usr/lib/x86_64-linux-gnu/libLLVM-9.so.1
   fun:_ZN4llvm12PassRegistry12registerPassERKNS_8PassInfoEb
   obj:/usr/lib/x86_64-linux-gnu/libLLVM-9.so.1
   fun:__pthread_once_slow
   fun:_ZN4llvm35initializeGCMachineCodeAnalysisPassERNS_12PassRegistryE
   fun:_ZN4llvm17initializeCodeGenERNS_12PassRegistryE
   fun:_ZN4llvm16TargetPassConfigC1ERNS_17LLVMTargetMachineERNS_6legacy15PassManagerBaseE
   fun:_ZN4llvm16GCNTargetMachine16createPassConfigERNS_6legacy15PassManagerBaseE
   fun:_ZN4llvm17LLVMTargetMachine19addPassesToEmitFileERNS_6legacy15PassManagerBaseERNS_17raw_pwrite_streamEPS4_NS_13TargetMachine15CodeGenFileTypeEbPNS_17MachineModuleInfoE
   obj:/usr/lib/x86_64-linux-gnu/dri/radeonsi_dri.so
   obj:/usr/lib/x86_64-linux-gnu/dri/radeonsi_dri.so
}
{
   <insert_a_suppression_name_here>
   Memcheck:Leak
   match-leak-kinds: reachable
   fun:malloc
   obj:/usr/lib/x86_64-linux-gnu/libLLVM-9.so.1
   fun:_ZN4llvm12PassRegistry12registerPassERKNS_8PassInfoEb
   obj:/usr/lib/x86_64-linux-gnu/libLLVM-9.so.1
   fun:__pthread_once_slow
   fun:_ZN4llvm29initializeLowerIntrinsicsPassERNS_12PassRegistryE
   fun:_ZN4llvm17initializeCodeGenERNS_12PassRegistryE
   fun:_ZN4llvm16TargetPassConfigC1ERNS_17LLVMTargetMachineERNS_6legacy15PassManagerBaseE
   fun:_ZN4llvm16GCNTargetMachine16createPassConfigERNS_6legacy15PassManagerBaseE
   fun:_ZN4llvm17LLVMTargetMachine19addPassesToEmitFileERNS_6legacy15PassManagerBaseERNS_17raw_pwrite_streamEPS4_NS_13TargetMachine15CodeGenFileTypeEbPNS_17MachineModuleInfoE
   obj:/usr/lib/x86_64-linux-gnu/dri/radeonsi_dri.so
   obj:/usr/lib/x86_64-linux-gnu/dri/radeonsi_dri.so
}
{
   <insert_a_suppression_name_here>
   Memcheck:Leak
   match-leak-kinds: reachable
   fun:malloc
   obj:/usr/lib/x86_64-linux-gnu/libLLVM-9.so.1
   fun:_ZN4llvm12PassRegistry12registerPassERKNS_8PassInfoEb
   obj:/usr/lib/x86_64-linux-gnu/libLLVM-9.so.1
   fun:__pthread_once_slow
   fun:_ZN4llvm24initializeMachineCSEPassERNS_12PassRegistryE
   fun:_ZN4llvm17initializeCodeGenERNS_12PassRegistryE
   fun:_ZN4llvm16TargetPassConfigC1ERNS_17LLVMTargetMachineERNS_6legacy15PassManagerBaseE
   fun:_ZN4llvm16GCNTargetMachine16createPassConfigERNS_6legacy15PassManagerBaseE
   fun:_ZN4llvm17LLVMTargetMachine19addPassesToEmitFileERNS_6legacy15PassManagerBaseERNS_17raw_pwrite_streamEPS4_NS_13TargetMachine15CodeGenFileTypeEbPNS_17MachineModuleInfoE
   obj:/usr/lib/x86_64-linux-gnu/dri/radeonsi_dri.so
   obj:/usr/lib/x86_64-linux-gnu/dri/radeonsi_dri.so
}
{
   <insert_a_suppression_name_here>
   Memcheck:Leak
   match-leak-kinds: reachable
   fun:malloc
   obj:/usr/lib/x86_64-linux-gnu/libLLVM-9.so.1
   fun:_ZN4llvm12PassRegistry12registerPassERKNS_8PassInfoEb
   obj:/usr/lib/x86_64-linux-gnu/libLLVM-9.so.1
   fun:__pthread_once_slow
   fun:_ZN4llvm25initializeMachineLICMPassERNS_12PassRegistryE
   fun:_ZN4llvm17initializeCodeGenERNS_12PassRegistryE
   fun:_ZN4llvm16TargetPassConfigC1ERNS_17LLVMTargetMachineERNS_6legacy15PassManagerBaseE
   fun:_ZN4llvm16GCNTargetMachine16createPassConfigERNS_6legacy15PassManagerBaseE
   fun:_ZN4llvm17LLVMTargetMachine19addPassesToEmitFileERNS_6legacy15PassManagerBaseERNS_17raw_pwrite_streamEPS4_NS_13TargetMachine15CodeGenFileTypeEbPNS_17MachineModuleInfoE
   obj:/usr/lib/x86_64-linux-gnu/dri/radeonsi_dri.so
   obj:/usr/lib/x86_64-linux-gnu/dri/radeonsi_dri.so
}
{
   <insert_a_suppression_name_here>
   Memcheck:Leak
   match-leak-kinds: reachable
   fun:malloc
   obj:/usr/lib/x86_64-linux-gnu/libLLVM-9.so.1
   fun:_ZN4llvm12PassRegistry12registerPassERKNS_8PassInfoEb
   obj:/usr/lib/x86_64-linux-gnu/libLLVM-9.so.1
   fun:__pthread_once_slow
   fun:_ZN4llvm34initializePostMachineSchedulerPassERNS_12PassRegistryE
   fun:_ZN4llvm17initializeCodeGenERNS_12PassRegistryE
   fun:_ZN4llvm16TargetPassConfigC1ERNS_17LLVMTargetMachineERNS_6legacy15PassManagerBaseE
   fun:_ZN4llvm16GCNTargetMachine16createPassConfigERNS_6legacy15PassManagerBaseE
   fun:_ZN4llvm17LLVMTargetMachine19addPassesToEmitFileERNS_6legacy15PassManagerBaseERNS_17raw_pwrite_streamEPS4_NS_13TargetMachine15CodeGenFileTypeEbPNS_17MachineModuleInfoE
   obj:/usr/lib/x86_64-linux-gnu/dri/radeonsi_dri.so
   obj:/usr/lib/x86_64-linux-gnu/dri/radeonsi_dri.so
}
{
   <insert_a_suppression_name_here>
   Memcheck:Leak
   match-leak-kinds: reachable
   fun:malloc
   obj:/usr/lib/x86_64-linux-gnu/libLLVM-9.so.1
   fun:_ZN4llvm12PassRegistry12registerPassERKNS_8PassInfoEb
   obj:/usr/lib/x86_64-linux-gnu/libLLVM-9.so.1
   fun:__pthread_once_slow
   fun:_ZN4llvm24initializeShrinkWrapPassERNS_12PassRegistryE
   fun:_ZN4llvm17initializeCodeGenERNS_12PassRegistryE
   fun:_ZN4llvm16TargetPassConfigC1ERNS_17LLVMTargetMachineERNS_6legacy15PassManagerBaseE
   fun:_ZN4llvm16GCNTargetMachine16createPassConfigERNS_6legacy15PassManagerBaseE
   fun:_ZN4llvm17LLVMTargetMachine19addPassesToEmitFileERNS_6legacy15PassManagerBaseERNS_17raw_pwrite_streamEPS4_NS_13TargetMachine15CodeGenFileTypeEbPNS_17MachineModuleInfoE
   obj:/usr/lib/x86_64-linux-gnu/dri/radeonsi_dri.so
   obj:/usr/lib/x86_64-linux-gnu/dri/radeonsi_dri.so
}
{
   <insert_a_suppression_name_here>
   Memcheck:Leak
   match-leak-kinds: reachable
   fun:malloc
   obj:/usr/lib/x86_64-linux-gnu/libLLVM-9.so.1
   fun:_ZN4llvm12PassRegistry12registerPassERKNS_8PassInfoEb
   obj:/usr/lib/x86_64-linux-gnu/libLLVM-9.so.1
   fun:__pthread_once_slow
   fun:_ZN4llvm28createLoopStrengthReducePassEv
   fun:_ZN4llvm16TargetPassConfig11addIRPassesEv
   obj:/usr/lib/x86_64-linux-gnu/libLLVM-9.so.1
   fun:_ZN4llvm16TargetPassConfig13addISelPassesEv
   fun:_ZN4llvm17LLVMTargetMachine19addPassesToEmitFileERNS_6legacy15PassManagerBaseERNS_17raw_pwrite_streamEPS4_NS_13TargetMachine15CodeGenFileTypeEbPNS_17MachineModuleInfoE
   obj:/usr/lib/x86_64-linux-gnu/dri/radeonsi_dri.so
   obj:/usr/lib/x86_64-linux-gnu/dri/radeonsi_dri.so
}
{
   <insert_a_suppression_name_here>
   Memcheck:Leak
   match-leak-kinds: reachable
   fun:malloc
   obj:/usr/lib/x86_64-linux-gnu/libLLVM-9.so.1
   fun:_ZN4llvm12PassRegistry12registerPassERKNS_8PassInfoEb
   obj:/usr/lib/x86_64-linux-gnu/libLLVM-9.so.1
   fun:__pthread_once_slow
   fun:_ZN4llvm46initializeBranchProbabilityInfoWrapperPassPassERNS_12PassRegistryE
   obj:/usr/lib/x86_64-linux-gnu/libLLVM-9.so.1
   fun:__pthread_once_slow
   fun:_ZN4llvm43initializeBlockFrequencyInfoWrapperPassPassERNS_12PassRegistryE
   obj:/usr/lib/x86_64-linux-gnu/libLLVM-9.so.1
   fun:__pthread_once_slow
   fun:_ZN4llvm26createConstantHoistingPassEv
}
{
   <insert_a_suppression_name_here>
   Memcheck:Leak
   match-leak-kinds: reachable
   fun:malloc
   obj:/usr/lib/x86_64-linux-gnu/libLLVM-9.so.1
   fun:_ZN4llvm12PassRegistry12registerPassERKNS_8PassInfoEb
   obj:/usr/lib/x86_64-linux-gnu/libLLVM-9.so.1
   fun:__pthread_once_slow
   fun:_ZN4llvm21createLowerInvokePassEv
   fun:_ZN4llvm16TargetPassConfig27addPassesToHandleExceptionsEv
   fun:_ZN4llvm16TargetPassConfig13addISelPassesEv
   fun:_ZN4llvm17LLVMTargetMachine19addPassesToEmitFileERNS_6legacy15PassManagerBaseERNS_17raw_pwrite_streamEPS4_NS_13TargetMachine15CodeGenFileTypeEbPNS_17MachineModuleInfoE
   obj:/usr/lib/x86_64-linux-gnu/dri/radeonsi_dri.so
   obj:/usr/lib/x86_64-linux-gnu/dri/radeonsi_dri.so
   obj:/usr/lib/x86_64-linux-gnu/dri/radeonsi_dri.so
}
{
   <insert_a_suppression_name_here>
   Memcheck:Leak
   match-leak-kinds: reachable
   fun:malloc
   obj:/usr/lib/x86_64-linux-gnu/libLLVM-9.so.1
   fun:_ZN4llvm12PassRegistry12registerPassERKNS_8PassInfoEb
   obj:/usr/lib/x86_64-linux-gnu/libLLVM-9.so.1
   fun:__pthread_once_slow
   fun:_ZN4llvm21createLowerSwitchPassEv
   obj:/usr/lib/x86_64-linux-gnu/libLLVM-9.so.1
   fun:_ZN4llvm16TargetPassConfig14addISelPrepareEv
   fun:_ZN4llvm16TargetPassConfig13addISelPassesEv
   fun:_ZN4llvm17LLVMTargetMachine19addPassesToEmitFileERNS_6legacy15PassManagerBaseERNS_17raw_pwrite_streamEPS4_NS_13TargetMachine15CodeGenFileTypeEbPNS_17MachineModuleInfoE
   obj:/usr/lib/x86_64-linux-gnu/dri/radeonsi_dri.so
   obj:/usr/lib/x86_64-linux-gnu/dri/radeonsi_dri.so
}
{
   <insert_a_suppression_name_here>
   Memcheck:Leak
   match-leak-kinds: reachable
   fun:malloc
   obj:/usr/lib/x86_64-linux-gnu/libLLVM-9.so.1
   fun:_ZN4llvm12PassRegistry12registerPassERKNS_8PassInfoEb
   obj:/usr/lib/x86_64-linux-gnu/libLLVM-9.so.1
   fun:__pthread_once_slow
   fun:_ZN4llvm42initializeDominanceFrontierWrapperPassPassERNS_12PassRegistryE
   obj:/usr/lib/x86_64-linux-gnu/libLLVM-9.so.1
   fun:__pthread_once_slow
   fun:_ZN4llvm28initializeRegionInfoPassPassERNS_12PassRegistryE
   obj:/usr/lib/x86_64-linux-gnu/libLLVM-9.so.1
   fun:__pthread_once_slow
   obj:/usr/lib/x86_64-linux-gnu/libLLVM-9.so.1
}
{
   <insert_a_suppression_name_here>
   Memcheck:Leak
   match-leak-kinds: reachable
   fun:malloc
   obj:/usr/lib/x86_64-linux-gnu/libLLVM-9.so.1
   fun:_ZN4llvm12PassRegistry12registerPassERKNS_8PassInfoEb
   obj:/usr/lib/x86_64-linux-gnu/libLLVM-9.so.1
   fun:__pthread_once_slow
   fun:_ZN4llvm22createSIAddIMGInitPassEv
   obj:/usr/lib/x86_64-linux-gnu/libLLVM-9.so.1
   fun:_ZN4llvm16TargetPassConfig17addCoreISelPassesEv
   fun:_ZN4llvm16TargetPassConfig13addISelPassesEv
   fun:_ZN4llvm17LLVMTargetMachine19addPassesToEmitFileERNS_6legacy15PassManagerBaseERNS_17raw_pwrite_streamEPS4_NS_13TargetMachine15CodeGenFileTypeEbPNS_17MachineModuleInfoE
   obj:/usr/lib/x86_64-linux-gnu/dri/radeonsi_dri.so
   obj:/usr/lib/x86_64-linux-gnu/dri/radeonsi_dri.so
}
{
   <insert_a_suppression_name_here>
   Memcheck:Leak
   match-leak-kinds: reachable
   fun:malloc
   obj:/usr/lib/x86_64-linux-gnu/libLLVM-9.so.1
   fun:_ZN4llvm12PassRegistry12registerPassERKNS_8PassInfoEb
   obj:/usr/lib/x86_64-linux-gnu/libLLVM-9.so.1
   fun:__pthread_once_slow
   fun:_ZN4llvm26initializeIRTranslatorPassERNS_12PassRegistryE
   fun:_ZN4llvm20initializeGlobalISelERNS_12PassRegistryE
   fun:LLVMInitializeAMDGPUTarget
   obj:/usr/lib/x86_64-linux-gnu/dri/radeonsi_dri.so
   fun:__pthread_once_slow
   obj:/usr/lib/x86_64-linux-gnu/dri/radeonsi_dri.so
   obj:/usr/lib/x86_64-linux-gnu/dri/radeonsi_dri.so
}
{
   <insert_a_suppression_name_here>
   Memcheck:Leak
   match-leak-kinds: reachable
   fun:malloc
   obj:/usr/lib/x86_64-linux-gnu/libLLVM-9.so.1
   fun:_ZN4llvm12PassRegistry12registerPassERKNS_8PassInfoEb
   obj:/usr/lib/x86_64-linux-gnu/libLLVM-9.so.1
   fun:__pthread_once_slow
   fun:_ZN4llvm29initializeSILowerI1CopiesPassERNS_12PassRegistryE
   fun:LLVMInitializeAMDGPUTarget
   obj:/usr/lib/x86_64-linux-gnu/dri/radeonsi_dri.so
   fun:__pthread_once_slow
   obj:/usr/lib/x86_64-linux-gnu/dri/radeonsi_dri.so
   obj:/usr/lib/x86_64-linux-gnu/dri/radeonsi_dri.so
   obj:/usr/lib/x86_64-linux-gnu/dri/radeonsi_dri.so
}
{
   <insert_a_suppression_name_here>
   Memcheck:Leak
   match-leak-kinds: reachable
   fun:malloc
   obj:/usr/lib/x86_64-linux-gnu/libLLVM-9.so.1
   fun:_ZN4llvm12PassRegistry12registerPassERKNS_8PassInfoEb
   obj:/usr/lib/x86_64-linux-gnu/libLLVM-9.so.1
   fun:__pthread_once_slow
   fun:_ZN4llvm30initializeExpandMemCmpPassPassERNS_12PassRegistryE
   fun:_ZN4llvm17initializeCodeGenERNS_12PassRegistryE
   fun:_ZN4llvm16TargetPassConfigC1ERNS_17LLVMTargetMachineERNS_6legacy15PassManagerBaseE
   fun:_ZN4llvm16GCNTargetMachine16createPassConfigERNS_6legacy15PassManagerBaseE
   fun:_ZN4llvm17LLVMTargetMachine19addPassesToEmitFileERNS_6legacy15PassManagerBaseERNS_17raw_pwrite_streamEPS4_NS_13TargetMachine15CodeGenFileTypeEbPNS_17MachineModuleInfoE
   obj:/usr/lib/x86_64-linux-gnu/dri/radeonsi_dri.so
   obj:/usr/lib/x86_64-linux-gnu/dri/radeonsi_dri.so
}
{
   <insert_a_suppression_name_here>
   Memcheck:Leak
   match-leak-kinds: reachable
   fun:malloc
   obj:/usr/lib/x86_64-linux-gnu/libLLVM-9.so.1
   fun:_ZN4llvm12PassRegistry12registerPassERKNS_8PassInfoEb
   obj:/usr/lib/x86_64-linux-gnu/libLLVM-9.so.1
   fun:__pthread_once_slow
   fun:_ZN4llvm25initializeIfConverterPassERNS_12PassRegistryE
   fun:_ZN4llvm17initializeCodeGenERNS_12PassRegistryE
   fun:_ZN4llvm16TargetPassConfigC1ERNS_17LLVMTargetMachineERNS_6legacy15PassManagerBaseE
   fun:_ZN4llvm16GCNTargetMachine16createPassConfigERNS_6legacy15PassManagerBaseE
   fun:_ZN4llvm17LLVMTargetMachine19addPassesToEmitFileERNS_6legacy15PassManagerBaseERNS_17raw_pwrite_streamEPS4_NS_13TargetMachine15CodeGenFileTypeEbPNS_17MachineModuleInfoE
   obj:/usr/lib/x86_64-linux-gnu/dri/radeonsi_dri.so
   obj:/usr/lib/x86_64-linux-gnu/dri/radeonsi_dri.so
}
{
   <insert_a_suppression_name_here>
   Memcheck:Leak
   match-leak-kinds: reachable
   fun:malloc
   obj:/usr/lib/x86_64-linux-gnu/libLLVM-9.so.1
   fun:_ZN4llvm12PassRegistry12registerPassERKNS_8PassInfoEb
   obj:/usr/lib/x86_64-linux-gnu/libLLVM-9.so.1
   fun:__pthread_once_slow
   fun:_ZN4llvm28initializeMachineSinkingPassERNS_12PassRegistryE
   fun:_ZN4llvm17initializeCodeGenERNS_12PassRegistryE
   fun:_ZN4llvm16TargetPassConfigC1ERNS_17LLVMTargetMachineERNS_6legacy15PassManagerBaseE
   fun:_ZN4llvm16GCNTargetMachine16createPassConfigERNS_6legacy15PassManagerBaseE
   fun:_ZN4llvm17LLVMTargetMachine19addPassesToEmitFileERNS_6legacy15PassManagerBaseERNS_17raw_pwrite_streamEPS4_NS_13TargetMachine15CodeGenFileTypeEbPNS_17MachineModuleInfoE
   obj:/usr/lib/x86_64-linux-gnu/dri/radeonsi_dri.so
   obj:/usr/lib/x86_64-linux-gnu/dri/radeonsi_dri.so
}
{
   <insert_a_suppression_name_here>
   Memcheck:Leak
   match-leak-kinds: reachable
   fun:malloc
   obj:/usr/lib/x86_64-linux-gnu/libLLVM-9.so.1
   fun:_ZN4llvm12PassRegistry12registerPassERKNS_8PassInfoEb
   obj:/usr/lib/x86_64-linux-gnu/libLLVM-9.so.1
   fun:__pthread_once_slow
   fun:_ZN4llvm17initializePEIPassERNS_12PassRegistryE
   fun:_ZN4llvm17initializeCodeGenERNS_12PassRegistryE
   fun:_ZN4llvm16TargetPassConfigC1ERNS_17LLVMTargetMachineERNS_6legacy15PassManagerBaseE
   fun:_ZN4llvm16GCNTargetMachine16createPassConfigERNS_6legacy15PassManagerBaseE
   fun:_ZN4llvm17LLVMTargetMachine19addPassesToEmitFileERNS_6legacy15PassManagerBaseERNS_17raw_pwrite_streamEPS4_NS_13TargetMachine15CodeGenFileTypeEbPNS_17MachineModuleInfoE
   obj:/usr/lib/x86_64-linux-gnu/dri/radeonsi_dri.so
   obj:/usr/lib/x86_64-linux-gnu/dri/radeonsi_dri.so
}
{
   <insert_a_suppression_name_here>
   Memcheck:Leak
   match-leak-kinds: reachable
   fun:malloc
   obj:/usr/lib/x86_64-linux-gnu/libLLVM-9.so.1
   fun:_ZN4llvm12PassRegistry12registerPassERKNS_8PassInfoEb
   obj:/usr/lib/x86_64-linux-gnu/libLLVM-9.so.1
   fun:__pthread_once_slow
   fun:_ZN4llvm31initializePeepholeOptimizerPassERNS_12PassRegistryE
   fun:_ZN4llvm17initializeCodeGenERNS_12PassRegistryE
   fun:_ZN4llvm16TargetPassConfigC1ERNS_17LLVMTargetMachineERNS_6legacy15PassManagerBaseE
   fun:_ZN4llvm16GCNTargetMachine16createPassConfigERNS_6legacy15PassManagerBaseE
   fun:_ZN4llvm17LLVMTargetMachine19addPassesToEmitFileERNS_6legacy15PassManagerBaseERNS_17raw_pwrite_streamEPS4_NS_13TargetMachine15CodeGenFileTypeEbPNS_17MachineModuleInfoE
   obj:/usr/lib/x86_64-linux-gnu/dri/radeonsi_dri.so
   obj:/usr/lib/x86_64-linux-gnu/dri/radeonsi_dri.so
}
{
   <insert_a_suppression_name_here>
   Memcheck:Leak
   match-leak-kinds: reachable
   fun:malloc
   obj:/usr/lib/x86_64-linux-gnu/libLLVM-9.so.1
   fun:_ZN4llvm12PassRegistry12registerPassERKNS_8PassInfoEb
   obj:/usr/lib/x86_64-linux-gnu/libLLVM-9.so.1
   fun:__pthread_once_slow
   fun:_ZN4llvm25initializeEdgeBundlesPassERNS_12PassRegistryE
   obj:/usr/lib/x86_64-linux-gnu/libLLVM-9.so.1
   fun:__pthread_once_slow
   fun:_ZN4llvm22initializeRAGreedyPassERNS_12PassRegistryE
   fun:_ZN4llvm17initializeCodeGenERNS_12PassRegistryE
   fun:_ZN4llvm16TargetPassConfigC1ERNS_17LLVMTargetMachineERNS_6legacy15PassManagerBaseE
   fun:_ZN4llvm16GCNTargetMachine16createPassConfigERNS_6legacy15PassManagerBaseE
}
{
   <insert_a_suppression_name_here>
   Memcheck:Leak
   match-leak-kinds: reachable
   fun:malloc
   obj:/usr/lib/x86_64-linux-gnu/libLLVM-9.so.1
   fun:_ZN4llvm12PassRegistry12registerPassERKNS_8PassInfoEb
   obj:/usr/lib/x86_64-linux-gnu/libLLVM-9.so.1
   fun:__pthread_once_slow
   fun:_ZN4llvm26initializeRegAllocFastPassERNS_12PassRegistryE
   fun:_ZN4llvm17initializeCodeGenERNS_12PassRegistryE
   fun:_ZN4llvm16TargetPassConfigC1ERNS_17LLVMTargetMachineERNS_6legacy15PassManagerBaseE
   fun:_ZN4llvm16GCNTargetMachine16createPassConfigERNS_6legacy15PassManagerBaseE
   fun:_ZN4llvm17LLVMTargetMachine19addPassesToEmitFileERNS_6legacy15PassManagerBaseERNS_17raw_pwrite_streamEPS4_NS_13TargetMachine15CodeGenFileTypeEbPNS_17MachineModuleInfoE
   obj:/usr/lib/x86_64-linux-gnu/dri/radeonsi_dri.so
   obj:/usr/lib/x86_64-linux-gnu/dri/radeonsi_dri.so
}
{
   <insert_a_suppression_name_here>
   Memcheck:Leak
   match-leak-kinds: reachable
   fun:malloc
   obj:/usr/lib/x86_64-linux-gnu/libLLVM-9.so.1
   fun:_ZN4llvm12PassRegistry12registerPassERKNS_8PassInfoEb
   obj:/usr/lib/x86_64-linux-gnu/libLLVM-9.so.1
   fun:__pthread_once_slow
   fun:_ZN4llvm26initializeWinEHPreparePassERNS_12PassRegistryE
   fun:_ZN4llvm17initializeCodeGenERNS_12PassRegistryE
   fun:_ZN4llvm16TargetPassConfigC1ERNS_17LLVMTargetMachineERNS_6legacy15PassManagerBaseE
   fun:_ZN4llvm16GCNTargetMachine16createPassConfigERNS_6legacy15PassManagerBaseE
   fun:_ZN4llvm17LLVMTargetMachine19addPassesToEmitFileERNS_6legacy15PassManagerBaseERNS_17raw_pwrite_streamEPS4_NS_13TargetMachine15CodeGenFileTypeEbPNS_17MachineModuleInfoE
   obj:/usr/lib/x86_64-linux-gnu/dri/radeonsi_dri.so
   obj:/usr/lib/x86_64-linux-gnu/dri/radeonsi_dri.so
}
{
   <insert_a_suppression_name_here>
   Memcheck:Leak
   match-leak-kinds: reachable
   fun:malloc
   obj:/usr/lib/x86_64-linux-gnu/libLLVM-9.so.1
   obj:/usr/lib/x86_64-linux-gnu/libLLVM-9.so.1
   obj:/usr/lib/x86_64-linux-gnu/libLLVM-9.so.1
   obj:/usr/lib/x86_64-linux-gnu/libLLVM-9.so.1
   obj:/usr/lib/x86_64-linux-gnu/libLLVM-9.so.1
   obj:/usr/lib/x86_64-linux-gnu/libLLVM-9.so.1
   fun:call_init.part.0
   fun:call_init
   fun:_dl_init
   fun:_dl_catch_exception
   fun:dl_open_worker
   fun:_dl_catch_exception
}
{
   <insert_a_suppression_name_here>
   Memcheck:Leak
   match-leak-kinds: reachable
   fun:malloc
   obj:/usr/lib/x86_64-linux-gnu/libLLVM-9.so.1
   fun:_ZN4llvm12PassRegistry12registerPassERKNS_8PassInfoEb
   obj:/usr/lib/x86_64-linux-gnu/libLLVM-9.so.1
   fun:__pthread_once_slow
   fun:_ZN4llvm29initializeMachineLoopInfoPassERNS_12PassRegistryE
   obj:/usr/lib/x86_64-linux-gnu/libLLVM-9.so.1
   fun:__pthread_once_slow
   fun:_ZN4llvm39initializeMachineBlockFrequencyInfoPassERNS_12PassRegistryE
   obj:/usr/lib/x86_64-linux-gnu/libLLVM-9.so.1
   fun:__pthread_once_slow
   fun:_ZN4llvm27initializeRegBankSelectPassERNS_12PassRegistryE
}
{
   <insert_a_suppression_name_here>
   Memcheck:Leak
   match-leak-kinds: reachable
   fun:malloc
   obj:/usr/lib/x86_64-linux-gnu/libLLVM-9.so.1
   fun:_ZN4llvm12PassRegistry12registerPassERKNS_8PassInfoEb
   obj:/usr/lib/x86_64-linux-gnu/libLLVM-9.so.1
   fun:__pthread_once_slow
   fun:_ZN4llvm27initializeRegBankSelectPassERNS_12PassRegistryE
   fun:_ZN4llvm20initializeGlobalISelERNS_12PassRegistryE
   fun:LLVMInitializeAMDGPUTarget
   obj:/usr/lib/x86_64-linux-gnu/dri/radeonsi_dri.so
   fun:__pthread_once_slow
   obj:/usr/lib/x86_64-linux-gnu/dri/radeonsi_dri.so
   obj:/usr/lib/x86_64-linux-gnu/dri/radeonsi_dri.so
}
{
   <insert_a_suppression_name_here>
   Memcheck:Leak
   match-leak-kinds: reachable
   fun:malloc
   obj:/usr/lib/x86_64-linux-gnu/libLLVM-9.so.1
   fun:_ZN4llvm12PassRegistry12registerPassERKNS_8PassInfoEb
   obj:/usr/lib/x86_64-linux-gnu/libLLVM-9.so.1
   fun:__pthread_once_slow
   fun:_ZN4llvm42initializeTargetLibraryInfoWrapperPassPassERNS_12PassRegistryE
   obj:/usr/lib/x86_64-linux-gnu/libLLVM-9.so.1
   fun:__pthread_once_slow
   fun:_ZN4llvm32initializeBasicAAWrapperPassPassERNS_12PassRegistryE
   obj:/usr/lib/x86_64-linux-gnu/libLLVM-9.so.1
   fun:__pthread_once_slow
   fun:_ZN4llvm34initializeAAResultsWrapperPassPassERNS_12PassRegistryE
}
{
   <insert_a_suppression_name_here>
   Memcheck:Leak
   match-leak-kinds: reachable
   fun:malloc
   obj:/usr/lib/x86_64-linux-gnu/libLLVM-9.so.1
   fun:_ZN4llvm12PassRegistry12registerPassERKNS_8PassInfoEb
   obj:/usr/lib/x86_64-linux-gnu/libLLVM-9.so.1
   fun:__pthread_once_slow
   fun:_ZN4llvm36initializeCFLAndersAAWrapperPassPassERNS_12PassRegistryE
   obj:/usr/lib/x86_64-linux-gnu/libLLVM-9.so.1
   fun:__pthread_once_slow
   fun:_ZN4llvm34initializeAAResultsWrapperPassPassERNS_12PassRegistryE
   obj:/usr/lib/x86_64-linux-gnu/libLLVM-9.so.1
   fun:__pthread_once_slow
   fun:_ZN4llvm27initializeLiveIntervalsPassERNS_12PassRegistryE
}
{
   <insert_a_suppression_name_here>
   Memcheck:Leak
   match-leak-kinds: reachable
   fun:malloc
   obj:/usr/lib/x86_64-linux-gnu/libLLVM-9.so.1
   fun:_ZN4llvm12PassRegistry12registerPassERKNS_8PassInfoEb
   obj:/usr/lib/x86_64-linux-gnu/libLLVM-9.so.1
   fun:__pthread_once_slow
   fun:_ZN4llvm36initializeCFLSteensAAWrapperPassPassERNS_12PassRegistryE
   obj:/usr/lib/x86_64-linux-gnu/libLLVM-9.so.1
   fun:__pthread_once_slow
   fun:_ZN4llvm34initializeAAResultsWrapperPassPassERNS_12PassRegistryE
   obj:/usr/lib/x86_64-linux-gnu/libLLVM-9.so.1
   fun:__pthread_once_slow
   fun:_ZN4llvm27initializeLiveIntervalsPassERNS_12PassRegistryE
}
{
   <insert_a_suppression_name_here>
   Memcheck:Leak
   match-leak-kinds: reachable
   fun:malloc
   obj:/usr/lib/x86_64-linux-gnu/libLLVM-9.so.1
   fun:_ZN4llvm12PassRegistry12registerPassERKNS_8PassInfoEb
   obj:/usr/lib/x86_64-linux-gnu/libLLVM-9.so.1
   fun:__pthread_once_slow
   fun:_ZN4llvm27initializeLiveIntervalsPassERNS_12PassRegistryE
   obj:/usr/lib/x86_64-linux-gnu/libLLVM-9.so.1
   fun:__pthread_once_slow
   fun:_ZN4llvm40initializeSIOptimizeExecMaskingPreRAPassERNS_12PassRegistryE
   fun:LLVMInitializeAMDGPUTarget
   obj:/usr/lib/x86_64-linux-gnu/dri/radeonsi_dri.so
   fun:__pthread_once_slow
}
{
   <insert_a_suppression_name_here>
   Memcheck:Leak
   match-leak-kinds: reachable
   fun:malloc
   obj:/usr/lib/x86_64-linux-gnu/libLLVM-9.so.1
   fun:_ZN4llvm12PassRegistry12registerPassERKNS_8PassInfoEb
   obj:/usr/lib/x86_64-linux-gnu/libLLVM-9.so.1
   fun:__pthread_once_slow
   fun:_ZN4llvm27initializeLiveRegMatrixPassERNS_12PassRegistryE
   obj:/usr/lib/x86_64-linux-gnu/libLLVM-9.so.1
   fun:__pthread_once_slow
   fun:_ZN4llvm34initializeSIPreAllocateWWMRegsPassERNS_12PassRegistryE
   fun:LLVMInitializeAMDGPUTarget
   obj:/usr/lib/x86_64-linux-gnu/dri/radeonsi_dri.so
   fun:__pthread_once_slow
}
{
   <insert_a_suppression_name_here>
   Memcheck:Leak
   match-leak-kinds: reachable
   fun:malloc
   obj:/usr/lib/x86_64-linux-gnu/libLLVM-9.so.1
   fun:_ZN4llvm12PassRegistry12registerPassERKNS_8PassInfoEb
   obj:/usr/lib/x86_64-linux-gnu/libLLVM-9.so.1
   fun:__pthread_once_slow
   fun:_ZN4llvm27initializeAMDGPUInlinerPassERNS_12PassRegistryE
   fun:LLVMInitializeAMDGPUTarget
   obj:/usr/lib/x86_64-linux-gnu/dri/radeonsi_dri.so
   fun:__pthread_once_slow
   obj:/usr/lib/x86_64-linux-gnu/dri/radeonsi_dri.so
   obj:/usr/lib/x86_64-linux-gnu/dri/radeonsi_dri.so
   obj:/usr/lib/x86_64-linux-gnu/dri/radeonsi_dri.so
}
{
   <insert_a_suppression_name_here>
   Memcheck:Leak
   match-leak-kinds: reachable
   fun:malloc
   obj:/usr/lib/x86_64-linux-gnu/libLLVM-9.so.1
   fun:_ZN4llvm12PassRegistry12registerPassERKNS_8PassInfoEb
   obj:/usr/lib/x86_64-linux-gnu/libLLVM-9.so.1
   fun:__pthread_once_slow
   fun:_ZN4llvm29createAlwaysInlinerLegacyPassEb
   fun:LLVMAddAlwaysInlinerPass
   obj:/usr/lib/x86_64-linux-gnu/dri/radeonsi_dri.so
   obj:/usr/lib/x86_64-linux-gnu/dri/radeonsi_dri.so
   obj:/usr/lib/x86_64-linux-gnu/dri/radeonsi_dri.so
   obj:/usr/lib/x86_64-linux-gnu/dri/radeonsi_dri.so
   obj:/usr/lib/x86_64-linux-gnu/dri/radeonsi_dri.so
}
{
   <insert_a_suppression_name_here>
   Memcheck:Leak
   match-leak-kinds: reachable
   fun:malloc
   obj:/usr/lib/x86_64-linux-gnu/libLLVM-9.so.1
   fun:_ZN4llvm12PassRegistry12registerPassERKNS_8PassInfoEb
   obj:/usr/lib/x86_64-linux-gnu/libLLVM-9.so.1
   fun:__pthread_once_slow
   fun:_ZN4llvm26initializeLoopSimplifyPassERNS_12PassRegistryE
   fun:_ZN4llvm22initializeLoopPassPassERNS_12PassRegistryE
   obj:/usr/lib/x86_64-linux-gnu/libLLVM-9.so.1
   fun:__pthread_once_slow
   fun:_ZN4llvm14createLICMPassEv
   fun:LLVMAddLICMPass
   obj:/usr/lib/x86_64-linux-gnu/dri/radeonsi_dri.so
}
{
   <insert_a_suppression_name_here>
   Memcheck:Leak
   match-leak-kinds: reachable
   fun:malloc
   obj:/usr/lib/x86_64-linux-gnu/libLLVM-9.so.1
   fun:_ZN4llvm12PassRegistry12registerPassERKNS_8PassInfoEb
   obj:/usr/lib/x86_64-linux-gnu/libLLVM-9.so.1
   fun:__pthread_once_slow
   fun:_ZN4llvm26initializeAtomicExpandPassERNS_12PassRegistryE
   fun:_ZN4llvm17initializeCodeGenERNS_12PassRegistryE
   fun:_ZN4llvm16TargetPassConfigC1ERNS_17LLVMTargetMachineERNS_6legacy15PassManagerBaseE
   fun:_ZN4llvm16GCNTargetMachine16createPassConfigERNS_6legacy15PassManagerBaseE
   fun:_ZN4llvm17LLVMTargetMachine19addPassesToEmitFileERNS_6legacy15PassManagerBaseERNS_17raw_pwrite_streamEPS4_NS_13TargetMachine15CodeGenFileTypeEbPNS_17MachineModuleInfoE
   obj:/usr/lib/x86_64-linux-gnu/dri/radeonsi_dri.so
   obj:/usr/lib/x86_64-linux-gnu/dri/radeonsi_dri.so
}
{
   <insert_a_suppression_name_here>
   Memcheck:Leak
   match-leak-kinds: reachable
   fun:malloc
   obj:/usr/lib/x86_64-linux-gnu/libLLVM-9.so.1
   fun:_ZN4llvm12PassRegistry12registerPassERKNS_8PassInfoEb
   obj:/usr/lib/x86_64-linux-gnu/libLLVM-9.so.1
   fun:__pthread_once_slow
   fun:_ZN4llvm30initializeBranchFolderPassPassERNS_12PassRegistryE
   fun:_ZN4llvm17initializeCodeGenERNS_12PassRegistryE
   fun:_ZN4llvm16TargetPassConfigC1ERNS_17LLVMTargetMachineERNS_6legacy15PassManagerBaseE
   fun:_ZN4llvm16GCNTargetMachine16createPassConfigERNS_6legacy15PassManagerBaseE
   fun:_ZN4llvm17LLVMTargetMachine19addPassesToEmitFileERNS_6legacy15PassManagerBaseERNS_17raw_pwrite_streamEPS4_NS_13TargetMachine15CodeGenFileTypeEbPNS_17MachineModuleInfoE
   obj:/usr/lib/x86_64-linux-gnu/dri/radeonsi_dri.so
   obj:/usr/lib/x86_64-linux-gnu/dri/radeonsi_dri.so
}
{
   <insert_a_suppression_name_here>
   Memcheck:Leak
   match-leak-kinds: reachable
   fun:malloc
   obj:/usr/lib/x86_64-linux-gnu/libLLVM-9.so.1
   fun:_ZN4llvm12PassRegistry12registerPassERKNS_8PassInfoEb
   obj:/usr/lib/x86_64-linux-gnu/libLLVM-9.so.1
   fun:__pthread_once_slow
   fun:_ZN4llvm26initializeExpandPostRAPassERNS_12PassRegistryE
   fun:_ZN4llvm17initializeCodeGenERNS_12PassRegistryE
   fun:_ZN4llvm16TargetPassConfigC1ERNS_17LLVMTargetMachineERNS_6legacy15PassManagerBaseE
   fun:_ZN4llvm16GCNTargetMachine16createPassConfigERNS_6legacy15PassManagerBaseE
   fun:_ZN4llvm17LLVMTargetMachine19addPassesToEmitFileERNS_6legacy15PassManagerBaseERNS_17raw_pwrite_streamEPS4_NS_13TargetMachine15CodeGenFileTypeEbPNS_17MachineModuleInfoE
   obj:/usr/lib/x86_64-linux-gnu/dri/radeonsi_dri.so
   obj:/usr/lib/x86_64-linux-gnu/dri/radeonsi_dri.so
}
{
   <insert_a_suppression_name_here>
   Memcheck:Leak
   match-leak-kinds: reachable
   fun:malloc
   obj:/usr/lib/x86_64-linux-gnu/libLLVM-9.so.1
   fun:_ZN4llvm12PassRegistry12registerPassERKNS_8PassInfoEb
   obj:/usr/lib/x86_64-linux-gnu/libLLVM-9.so.1
   fun:__pthread_once_slow
   fun:_ZN4llvm28initializeFEntryInserterPassERNS_12PassRegistryE
   fun:_ZN4llvm17initializeCodeGenERNS_12PassRegistryE
   fun:_ZN4llvm16TargetPassConfigC1ERNS_17LLVMTargetMachineERNS_6legacy15PassManagerBaseE
   fun:_ZN4llvm16GCNTargetMachine16createPassConfigERNS_6legacy15PassManagerBaseE
   fun:_ZN4llvm17LLVMTargetMachine19addPassesToEmitFileERNS_6legacy15PassManagerBaseERNS_17raw_pwrite_streamEPS4_NS_13TargetMachine15CodeGenFileTypeEbPNS_17MachineModuleInfoE
   obj:/usr/lib/x86_64-linux-gnu/dri/radeonsi_dri.so
   obj:/usr/lib/x86_64-linux-gnu/dri/radeonsi_dri.so
}
{
   <insert_a_suppression_name_here>
   Memcheck:Leak
   match-leak-kinds: reachable
   fun:malloc
   obj:/usr/lib/x86_64-linux-gnu/libLLVM-9.so.1
   fun:_ZN4llvm12PassRegistry12registerPassERKNS_8PassInfoEb
   obj:/usr/lib/x86_64-linux-gnu/libLLVM-9.so.1
   fun:__pthread_once_slow
   fun:_ZN4llvm26initializeFinalizeISelPassERNS_12PassRegistryE
   fun:_ZN4llvm17initializeCodeGenERNS_12PassRegistryE
   fun:_ZN4llvm16TargetPassConfigC1ERNS_17LLVMTargetMachineERNS_6legacy15PassManagerBaseE
   fun:_ZN4llvm16GCNTargetMachine16createPassConfigERNS_6legacy15PassManagerBaseE
   fun:_ZN4llvm17LLVMTargetMachine19addPassesToEmitFileERNS_6legacy15PassManagerBaseERNS_17raw_pwrite_streamEPS4_NS_13TargetMachine15CodeGenFileTypeEbPNS_17MachineModuleInfoE
   obj:/usr/lib/x86_64-linux-gnu/dri/radeonsi_dri.so
   obj:/usr/lib/x86_64-linux-gnu/dri/radeonsi_dri.so
}
{
   <insert_a_suppression_name_here>
   Memcheck:Leak
   match-leak-kinds: reachable
   fun:malloc
   obj:/usr/lib/x86_64-linux-gnu/libLLVM-9.so.1
   fun:_ZN4llvm12PassRegistry12registerPassERKNS_8PassInfoEb
   obj:/usr/lib/x86_64-linux-gnu/libLLVM-9.so.1
   fun:__pthread_once_slow
   fun:_ZN4llvm32initializeLiveDebugVariablesPassERNS_12PassRegistryE
   fun:_ZN4llvm17initializeCodeGenERNS_12PassRegistryE
   fun:_ZN4llvm16TargetPassConfigC1ERNS_17LLVMTargetMachineERNS_6legacy15PassManagerBaseE
   fun:_ZN4llvm16GCNTargetMachine16createPassConfigERNS_6legacy15PassManagerBaseE
   fun:_ZN4llvm17LLVMTargetMachine19addPassesToEmitFileERNS_6legacy15PassManagerBaseERNS_17raw_pwrite_streamEPS4_NS_13TargetMachine15CodeGenFileTypeEbPNS_17MachineModuleInfoE
   obj:/usr/lib/x86_64-linux-gnu/dri/radeonsi_dri.so
   obj:/usr/lib/x86_64-linux-gnu/dri/radeonsi_dri.so
}
{
   <insert_a_suppression_name_here>
   Memcheck:Leak
   match-leak-kinds: reachable
   fun:malloc
   obj:/usr/lib/x86_64-linux-gnu/libLLVM-9.so.1
   fun:_ZN4llvm12PassRegistry12registerPassERKNS_8PassInfoEb
   obj:/usr/lib/x86_64-linux-gnu/libLLVM-9.so.1
   fun:__pthread_once_slow
   fun:_ZN4llvm29initializePostRASchedulerPassERNS_12PassRegistryE
   fun:_ZN4llvm17initializeCodeGenERNS_12PassRegistryE
   fun:_ZN4llvm16TargetPassConfigC1ERNS_17LLVMTargetMachineERNS_6legacy15PassManagerBaseE
   fun:_ZN4llvm16GCNTargetMachine16createPassConfigERNS_6legacy15PassManagerBaseE
   fun:_ZN4llvm17LLVMTargetMachine19addPassesToEmitFileERNS_6legacy15PassManagerBaseERNS_17raw_pwrite_streamEPS4_NS_13TargetMachine15CodeGenFileTypeEbPNS_17MachineModuleInfoE
   obj:/usr/lib/x86_64-linux-gnu/dri/radeonsi_dri.so
   obj:/usr/lib/x86_64-linux-gnu/dri/radeonsi_dri.so
}
{
   <insert_a_suppression_name_here>
   Memcheck:Leak
   match-leak-kinds: reachable
   fun:malloc
   obj:/usr/lib/x86_64-linux-gnu/libLLVM-9.so.1
   fun:_ZN4llvm12PassRegistry12registerPassERKNS_8PassInfoEb
   obj:/usr/lib/x86_64-linux-gnu/libLLVM-9.so.1
   fun:__pthread_once_slow
   fun:_ZN4llvm21initializeRABasicPassERNS_12PassRegistryE
   fun:_ZN4llvm17initializeCodeGenERNS_12PassRegistryE
   fun:_ZN4llvm16TargetPassConfigC1ERNS_17LLVMTargetMachineERNS_6legacy15PassManagerBaseE
   fun:_ZN4llvm16GCNTargetMachine16createPassConfigERNS_6legacy15PassManagerBaseE
   fun:_ZN4llvm17LLVMTargetMachine19addPassesToEmitFileERNS_6legacy15PassManagerBaseERNS_17raw_pwrite_streamEPS4_NS_13TargetMachine15CodeGenFileTypeEbPNS_17MachineModuleInfoE
   obj:/usr/lib/x86_64-linux-gnu/dri/radeonsi_dri.so
   obj:/usr/lib/x86_64-linux-gnu/dri/radeonsi_dri.so
}
{
   <insert_a_suppression_name_here>
   Memcheck:Leak
   match-leak-kinds: reachable
   fun:malloc
   obj:/usr/lib/x86_64-linux-gnu/libLLVM-9.so.1
   fun:_ZN4llvm12PassRegistry12registerPassERKNS_8PassInfoEb
   obj:/usr/lib/x86_64-linux-gnu/libLLVM-9.so.1
   fun:__pthread_once_slow
   fun:_ZN4llvm27initializeWasmEHPreparePassERNS_12PassRegistryE
   fun:_ZN4llvm17initializeCodeGenERNS_12PassRegistryE
   fun:_ZN4llvm16TargetPassConfigC1ERNS_17LLVMTargetMachineERNS_6legacy15PassManagerBaseE
   fun:_ZN4llvm16GCNTargetMachine16createPassConfigERNS_6legacy15PassManagerBaseE
   fun:_ZN4llvm17LLVMTargetMachine19addPassesToEmitFileERNS_6legacy15PassManagerBaseERNS_17raw_pwrite_streamEPS4_NS_13TargetMachine15CodeGenFileTypeEbPNS_17MachineModuleInfoE
   obj:/usr/lib/x86_64-linux-gnu/dri/radeonsi_dri.so
   obj:/usr/lib/x86_64-linux-gnu/dri/radeonsi_dri.so
}
{
   <insert_a_suppression_name_here>
   Memcheck:Leak
   match-leak-kinds: reachable
   fun:malloc
   obj:/usr/lib/x86_64-linux-gnu/libLLVM-9.so.1
   fun:_ZN4llvm12PassRegistry12registerPassERKNS_8PassInfoEb
   obj:/usr/lib/x86_64-linux-gnu/libLLVM-9.so.1
   fun:__pthread_once_slow
   fun:_ZN4llvm34initializeMachineDominatorTreePassERNS_12PassRegistryE
   obj:/usr/lib/x86_64-linux-gnu/libLLVM-9.so.1
   fun:__pthread_once_slow
   fun:_ZN4llvm29initializeMachineLoopInfoPassERNS_12PassRegistryE
   obj:/usr/lib/x86_64-linux-gnu/libLLVM-9.so.1
   fun:__pthread_once_slow
   fun:_ZN4llvm39initializeMachineBlockFrequencyInfoPassERNS_12PassRegistryE
}
{
   <insert_a_suppression_name_here>
   Memcheck:Leak
   match-leak-kinds: reachable
   fun:malloc
   obj:/usr/lib/x86_64-linux-gnu/libLLVM-9.so.1
   fun:_ZN4llvm12PassRegistry12registerPassERKNS_8PassInfoEb
   obj:/usr/lib/x86_64-linux-gnu/libLLVM-9.so.1
   fun:__pthread_once_slow
   fun:_ZN4llvm40initializeScopedNoAliasAAWrapperPassPassERNS_12PassRegistryE
   obj:/usr/lib/x86_64-linux-gnu/libLLVM-9.so.1
   fun:__pthread_once_slow
   fun:_ZN4llvm34initializeAAResultsWrapperPassPassERNS_12PassRegistryE
   obj:/usr/lib/x86_64-linux-gnu/libLLVM-9.so.1
   fun:__pthread_once_slow
   fun:_ZN4llvm27initializeLiveIntervalsPassERNS_12PassRegistryE
}
{
   <insert_a_suppression_name_here>
   Memcheck:Leak
   match-leak-kinds: reachable
   fun:malloc
   obj:/usr/lib/x86_64-linux-gnu/libLLVM-9.so.1
   fun:_ZN4llvm12PassRegistry12registerPassERKNS_8PassInfoEb
   obj:/usr/lib/x86_64-linux-gnu/libLLVM-9.so.1
   fun:__pthread_once_slow
   fun:_ZN4llvm28initializeCodeGenPreparePassERNS_12PassRegistryE
   fun:_ZN4llvm17initializeCodeGenERNS_12PassRegistryE
   fun:_ZN4llvm16TargetPassConfigC1ERNS_17LLVMTargetMachineERNS_6legacy15PassManagerBaseE
   fun:_ZN4llvm16GCNTargetMachine16createPassConfigERNS_6legacy15PassManagerBaseE
   fun:_ZN4llvm17LLVMTargetMachine19addPassesToEmitFileERNS_6legacy15PassManagerBaseERNS_17raw_pwrite_streamEPS4_NS_13TargetMachine15CodeGenFileTypeEbPNS_17MachineModuleInfoE
   obj:/usr/lib/x86_64-linux-gnu/dri/radeonsi_dri.so
   obj:/usr/lib/x86_64-linux-gnu/dri/radeonsi_dri.so
}
{
   <insert_a_suppression_name_here>
   Memcheck:Leak
   match-leak-kinds: reachable
   fun:malloc
   obj:/usr/lib/x86_64-linux-gnu/libLLVM-9.so.1
   fun:_ZN4llvm12PassRegistry12registerPassERKNS_8PassInfoEb
   obj:/usr/lib/x86_64-linux-gnu/libLLVM-9.so.1
   fun:__pthread_once_slow
   fun:_ZN4llvm28initializeDwarfEHPreparePassERNS_12PassRegistryE
   fun:_ZN4llvm17initializeCodeGenERNS_12PassRegistryE
   fun:_ZN4llvm16TargetPassConfigC1ERNS_17LLVMTargetMachineERNS_6legacy15PassManagerBaseE
   fun:_ZN4llvm16GCNTargetMachine16createPassConfigERNS_6legacy15PassManagerBaseE
   fun:_ZN4llvm17LLVMTargetMachine19addPassesToEmitFileERNS_6legacy15PassManagerBaseERNS_17raw_pwrite_streamEPS4_NS_13TargetMachine15CodeGenFileTypeEbPNS_17MachineModuleInfoE
   obj:/usr/lib/x86_64-linux-gnu/dri/radeonsi_dri.so
   obj:/usr/lib/x86_64-linux-gnu/dri/radeonsi_dri.so
}
{
   <insert_a_suppression_name_here>
   Memcheck:Leak
   match-leak-kinds: reachable
   fun:malloc
   obj:/usr/lib/x86_64-linux-gnu/libLLVM-9.so.1
   fun:_ZN4llvm12PassRegistry12registerPassERKNS_8PassInfoEb
   obj:/usr/lib/x86_64-linux-gnu/libLLVM-9.so.1
   fun:__pthread_once_slow
   fun:_ZN4llvm27initializeFuncletLayoutPassERNS_12PassRegistryE
   fun:_ZN4llvm17initializeCodeGenERNS_12PassRegistryE
   fun:_ZN4llvm16TargetPassConfigC1ERNS_17LLVMTargetMachineERNS_6legacy15PassManagerBaseE
   fun:_ZN4llvm16GCNTargetMachine16createPassConfigERNS_6legacy15PassManagerBaseE
   fun:_ZN4llvm17LLVMTargetMachine19addPassesToEmitFileERNS_6legacy15PassManagerBaseERNS_17raw_pwrite_streamEPS4_NS_13TargetMachine15CodeGenFileTypeEbPNS_17MachineModuleInfoE
   obj:/usr/lib/x86_64-linux-gnu/dri/radeonsi_dri.so
   obj:/usr/lib/x86_64-linux-gnu/dri/radeonsi_dri.so
}
{
   <insert_a_suppression_name_here>
   Memcheck:Leak
   match-leak-kinds: reachable
   fun:malloc
   obj:/usr/lib/x86_64-linux-gnu/libLLVM-9.so.1
   fun:_ZN4llvm12PassRegistry12registerPassERKNS_8PassInfoEb
   obj:/usr/lib/x86_64-linux-gnu/libLLVM-9.so.1
   fun:__pthread_once_slow
   fun:_ZN4llvm27initializeHardwareLoopsPassERNS_12PassRegistryE
   fun:_ZN4llvm17initializeCodeGenERNS_12PassRegistryE
   fun:_ZN4llvm16TargetPassConfigC1ERNS_17LLVMTargetMachineERNS_6legacy15PassManagerBaseE
   fun:_ZN4llvm16GCNTargetMachine16createPassConfigERNS_6legacy15PassManagerBaseE
   fun:_ZN4llvm17LLVMTargetMachine19addPassesToEmitFileERNS_6legacy15PassManagerBaseERNS_17raw_pwrite_streamEPS4_NS_13TargetMachine15CodeGenFileTypeEbPNS_17MachineModuleInfoE
   obj:/usr/lib/x86_64-linux-gnu/dri/radeonsi_dri.so
   obj:/usr/lib/x86_64-linux-gnu/dri/radeonsi_dri.so
}
{
   <insert_a_suppression_name_here>
   Memcheck:Leak
   match-leak-kinds: reachable
   fun:malloc
   obj:/usr/lib/x86_64-linux-gnu/libLLVM-9.so.1
   fun:_ZN4llvm12PassRegistry12registerPassERKNS_8PassInfoEb
   obj:/usr/lib/x86_64-linux-gnu/libLLVM-9.so.1
   fun:__pthread_once_slow
   fun:_ZN4llvm33initializeProcessImplicitDefsPassERNS_12PassRegistryE
   fun:_ZN4llvm17initializeCodeGenERNS_12PassRegistryE
   fun:_ZN4llvm16TargetPassConfigC1ERNS_17LLVMTargetMachineERNS_6legacy15PassManagerBaseE
   fun:_ZN4llvm16GCNTargetMachine16createPassConfigERNS_6legacy15PassManagerBaseE
   fun:_ZN4llvm17LLVMTargetMachine19addPassesToEmitFileERNS_6legacy15PassManagerBaseERNS_17raw_pwrite_streamEPS4_NS_13TargetMachine15CodeGenFileTypeEbPNS_17MachineModuleInfoE
   obj:/usr/lib/x86_64-linux-gnu/dri/radeonsi_dri.so
   obj:/usr/lib/x86_64-linux-gnu/dri/radeonsi_dri.so
}
{
   <insert_a_suppression_name_here>
   Memcheck:Leak
   match-leak-kinds: reachable
   fun:malloc
   obj:/usr/lib/x86_64-linux-gnu/libLLVM-9.so.1
   fun:_ZN4llvm12PassRegistry12registerPassERKNS_8PassInfoEb
   obj:/usr/lib/x86_64-linux-gnu/libLLVM-9.so.1
   fun:__pthread_once_slow
   fun:_ZN4llvm39initializePhysicalRegisterUsageInfoPassERNS_12PassRegistryE
   obj:/usr/lib/x86_64-linux-gnu/libLLVM-9.so.1
   fun:__pthread_once_slow
   fun:_ZN4llvm35initializeRegUsageInfoCollectorPassERNS_12PassRegistryE
   fun:_ZN4llvm17initializeCodeGenERNS_12PassRegistryE
   fun:_ZN4llvm16TargetPassConfigC1ERNS_17LLVMTargetMachineERNS_6legacy15PassManagerBaseE
   fun:_ZN4llvm16GCNTargetMachine16createPassConfigERNS_6legacy15PassManagerBaseE
}
{
   <insert_a_suppression_name_here>
   Memcheck:Leak
   match-leak-kinds: reachable
   fun:malloc
   obj:/usr/lib/x86_64-linux-gnu/libLLVM-9.so.1
   fun:_ZN4llvm12PassRegistry12registerPassERKNS_8PassInfoEb
   obj:/usr/lib/x86_64-linux-gnu/libLLVM-9.so.1
   fun:__pthread_once_slow
   fun:_ZN4llvm27initializeStackColoringPassERNS_12PassRegistryE
   fun:_ZN4llvm17initializeCodeGenERNS_12PassRegistryE
   fun:_ZN4llvm16TargetPassConfigC1ERNS_17LLVMTargetMachineERNS_6legacy15PassManagerBaseE
   fun:_ZN4llvm16GCNTargetMachine16createPassConfigERNS_6legacy15PassManagerBaseE
   fun:_ZN4llvm17LLVMTargetMachine19addPassesToEmitFileERNS_6legacy15PassManagerBaseERNS_17raw_pwrite_streamEPS4_NS_13TargetMachine15CodeGenFileTypeEbPNS_17MachineModuleInfoE
   obj:/usr/lib/x86_64-linux-gnu/dri/radeonsi_dri.so
   obj:/usr/lib/x86_64-linux-gnu/dri/radeonsi_dri.so
}
{
   <insert_a_suppression_name_here>
   Memcheck:Leak
   match-leak-kinds: reachable
   fun:malloc
   obj:/usr/lib/x86_64-linux-gnu/libLLVM-9.so.1
   fun:_ZN4llvm12PassRegistry12registerPassERKNS_8PassInfoEb
   obj:/usr/lib/x86_64-linux-gnu/libLLVM-9.so.1
   fun:__pthread_once_slow
   obj:/usr/lib/x86_64-linux-gnu/libLLVM-9.so.1
   fun:_ZN4llvm24createStructurizeCFGPassEb
   obj:/usr/lib/x86_64-linux-gnu/libLLVM-9.so.1
   fun:_ZN4llvm16TargetPassConfig14addISelPrepareEv
   fun:_ZN4llvm16TargetPassConfig13addISelPassesEv
   fun:_ZN4llvm17LLVMTargetMachine19addPassesToEmitFileERNS_6legacy15PassManagerBaseERNS_17raw_pwrite_streamEPS4_NS_13TargetMachine15CodeGenFileTypeEbPNS_17MachineModuleInfoE
   obj:/usr/lib/x86_64-linux-gnu/dri/radeonsi_dri.so
}
{
   <insert_a_suppression_name_here>
   Memcheck:Leak
   match-leak-kinds: reachable
   fun:malloc
   obj:/usr/lib/x86_64-linux-gnu/libLLVM-9.so.1
   fun:_ZN4llvm12PassRegistry12registerPassERKNS_8PassInfoEb
   obj:/usr/lib/x86_64-linux-gnu/libLLVM-9.so.1
   fun:__pthread_once_slow
   fun:_ZN4llvm28initializeDummyCGSCCPassPassERNS_12PassRegistryE
   fun:_ZN4llvm16TargetPassConfig14addISelPrepareEv
   fun:_ZN4llvm16TargetPassConfig13addISelPassesEv
   fun:_ZN4llvm17LLVMTargetMachine19addPassesToEmitFileERNS_6legacy15PassManagerBaseERNS_17raw_pwrite_streamEPS4_NS_13TargetMachine15CodeGenFileTypeEbPNS_17MachineModuleInfoE
   obj:/usr/lib/x86_64-linux-gnu/dri/radeonsi_dri.so
   obj:/usr/lib/x86_64-linux-gnu/dri/radeonsi_dri.so
   obj:/usr/lib/x86_64-linux-gnu/dri/radeonsi_dri.so
}
{
   <insert_a_suppression_name_here>
   Memcheck:Leak
   match-leak-kinds: reachable
   fun:_Znwm
   obj:/usr/lib/x86_64-linux-gnu/libLLVM-9.so.1
   fun:_ZNK4llvm17ManagedStaticBase21RegisterManagedStaticEPFPvvEPFvS1_E
   obj:/usr/lib/x86_64-linux-gnu/libLLVM-9.so.1
   fun:call_init.part.0
   fun:call_init
   fun:_dl_init
   fun:_dl_catch_exception
   fun:dl_open_worker
   fun:_dl_catch_exception
   fun:_dl_open
   fun:dlopen_doit
   fun:_dl_catch_exception
}
{
   <insert_a_suppression_name_here>
   Memcheck:Leak
   match-leak-kinds: reachable
   fun:malloc
   obj:/usr/lib/x86_64-linux-gnu/libLLVM-9.so.1
   fun:_ZN4llvm12PassRegistry12registerPassERKNS_8PassInfoEb
   obj:/usr/lib/x86_64-linux-gnu/libLLVM-9.so.1
   fun:__pthread_once_slow
   fun:_ZN4llvm33initializeR600ClauseMergePassPassERNS_12PassRegistryE
   fun:LLVMInitializeAMDGPUTarget
   obj:/usr/lib/x86_64-linux-gnu/dri/radeonsi_dri.so
   fun:__pthread_once_slow
   obj:/usr/lib/x86_64-linux-gnu/dri/radeonsi_dri.so
   obj:/usr/lib/x86_64-linux-gnu/dri/radeonsi_dri.so
   obj:/usr/lib/x86_64-linux-gnu/dri/radeonsi_dri.so
}
{
   <insert_a_suppression_name_here>
   Memcheck:Leak
   match-leak-kinds: reachable
   fun:malloc
   obj:/usr/lib/x86_64-linux-gnu/libLLVM-9.so.1
   fun:_ZN4llvm12PassRegistry12registerPassERKNS_8PassInfoEb
   obj:/usr/lib/x86_64-linux-gnu/libLLVM-9.so.1
   fun:__pthread_once_slow
   fun:_ZN4llvm27initializeGCNDPPCombinePassERNS_12PassRegistryE
   fun:LLVMInitializeAMDGPUTarget
   obj:/usr/lib/x86_64-linux-gnu/dri/radeonsi_dri.so
   fun:__pthread_once_slow
   obj:/usr/lib/x86_64-linux-gnu/dri/radeonsi_dri.so
   obj:/usr/lib/x86_64-linux-gnu/dri/radeonsi_dri.so
   obj:/usr/lib/x86_64-linux-gnu/dri/radeonsi_dri.so
}
{
   <insert_a_suppression_name_here>
   Memcheck:Leak
   match-leak-kinds: reachable
   fun:malloc
   obj:/usr/lib/x86_64-linux-gnu/libLLVM-9.so.1
   fun:_ZN4llvm12PassRegistry12registerPassERKNS_8PassInfoEb
   obj:/usr/lib/x86_64-linux-gnu/libLLVM-9.so.1
   fun:__pthread_once_slow
   fun:_ZN4llvm27initializeSIInsertSkipsPassERNS_12PassRegistryE
   fun:LLVMInitializeAMDGPUTarget
   obj:/usr/lib/x86_64-linux-gnu/dri/radeonsi_dri.so
   fun:__pthread_once_slow
   obj:/usr/lib/x86_64-linux-gnu/dri/radeonsi_dri.so
   obj:/usr/lib/x86_64-linux-gnu/dri/radeonsi_dri.so
   obj:/usr/lib/x86_64-linux-gnu/dri/radeonsi_dri.so
}
{
   <insert_a_suppression_name_here>
   Memcheck:Leak
   match-leak-kinds: reachable
   fun:malloc
   obj:/usr/lib/x86_64-linux-gnu/libLLVM-9.so.1
   fun:_ZN4llvm12PassRegistry12registerPassERKNS_8PassInfoEb
   obj:/usr/lib/x86_64-linux-gnu/libLLVM-9.so.1
   fun:__pthread_once_slow
   fun:_ZN4llvm25initializeLazyBFIPassPassERNS_12PassRegistryE
   obj:/usr/lib/x86_64-linux-gnu/libLLVM-9.so.1
   fun:__pthread_once_slow
   fun:_ZN4llvm50initializeOptimizationRemarkEmitterWrapperPassPassERNS_12PassRegistryE
   obj:/usr/lib/x86_64-linux-gnu/libLLVM-9.so.1
   fun:__pthread_once_slow
   fun:LLVMAddInstructionCombiningPass
}
{
   <insert_a_suppression_name_here>
   Memcheck:Leak
   match-leak-kinds: reachable
   fun:malloc
   obj:/usr/lib/x86_64-linux-gnu/libLLVM-9.so.1
   fun:_ZN4llvm12PassRegistry12registerPassERKNS_8PassInfoEb
   obj:/usr/lib/x86_64-linux-gnu/libLLVM-9.so.1
   fun:__pthread_once_slow
   fun:_ZN4llvm29initializeLiveDebugValuesPassERNS_12PassRegistryE
   fun:_ZN4llvm17initializeCodeGenERNS_12PassRegistryE
   fun:_ZN4llvm16TargetPassConfigC1ERNS_17LLVMTargetMachineERNS_6legacy15PassManagerBaseE
   fun:_ZN4llvm16GCNTargetMachine16createPassConfigERNS_6legacy15PassManagerBaseE
   fun:_ZN4llvm17LLVMTargetMachine19addPassesToEmitFileERNS_6legacy15PassManagerBaseERNS_17raw_pwrite_streamEPS4_NS_13TargetMachine15CodeGenFileTypeEbPNS_17MachineModuleInfoE
   obj:/usr/lib/x86_64-linux-gnu/dri/radeonsi_dri.so
   obj:/usr/lib/x86_64-linux-gnu/dri/radeonsi_dri.so
}
{
   <insert_a_suppression_name_here>
   Memcheck:Leak
   match-leak-kinds: reachable
   fun:malloc
   obj:/usr/lib/x86_64-linux-gnu/libLLVM-9.so.1
   fun:_ZN4llvm12PassRegistry12registerPassERKNS_8PassInfoEb
   obj:/usr/lib/x86_64-linux-gnu/libLLVM-9.so.1
   fun:__pthread_once_slow
   fun:_ZN4llvm32initializeLocalStackSlotPassPassERNS_12PassRegistryE
   fun:_ZN4llvm17initializeCodeGenERNS_12PassRegistryE
   fun:_ZN4llvm16TargetPassConfigC1ERNS_17LLVMTargetMachineERNS_6legacy15PassManagerBaseE
   fun:_ZN4llvm16GCNTargetMachine16createPassConfigERNS_6legacy15PassManagerBaseE
   fun:_ZN4llvm17LLVMTargetMachine19addPassesToEmitFileERNS_6legacy15PassManagerBaseERNS_17raw_pwrite_streamEPS4_NS_13TargetMachine15CodeGenFileTypeEbPNS_17MachineModuleInfoE
   obj:/usr/lib/x86_64-linux-gnu/dri/radeonsi_dri.so
   obj:/usr/lib/x86_64-linux-gnu/dri/radeonsi_dri.so
}
{
   <insert_a_suppression_name_here>
   Memcheck:Leak
   match-leak-kinds: reachable
   fun:malloc
   obj:/usr/lib/x86_64-linux-gnu/libLLVM-9.so.1
   fun:_ZN4llvm12PassRegistry12registerPassERKNS_8PassInfoEb
   obj:/usr/lib/x86_64-linux-gnu/libLLVM-9.so.1
   fun:__pthread_once_slow
   fun:_ZN4llvm35initializeMachineBlockPlacementPassERNS_12PassRegistryE
   fun:_ZN4llvm17initializeCodeGenERNS_12PassRegistryE
   fun:_ZN4llvm16TargetPassConfigC1ERNS_17LLVMTargetMachineERNS_6legacy15PassManagerBaseE
   fun:_ZN4llvm16GCNTargetMachine16createPassConfigERNS_6legacy15PassManagerBaseE
   fun:_ZN4llvm17LLVMTargetMachine19addPassesToEmitFileERNS_6legacy15PassManagerBaseERNS_17raw_pwrite_streamEPS4_NS_13TargetMachine15CodeGenFileTypeEbPNS_17MachineModuleInfoE
   obj:/usr/lib/x86_64-linux-gnu/dri/radeonsi_dri.so
   obj:/usr/lib/x86_64-linux-gnu/dri/radeonsi_dri.so
}
{
   <insert_a_suppression_name_here>
   Memcheck:Leak
   match-leak-kinds: reachable
   fun:malloc
   obj:/usr/lib/x86_64-linux-gnu/libLLVM-9.so.1
   fun:_ZN4llvm12PassRegistry12registerPassERKNS_8PassInfoEb
   obj:/usr/lib/x86_64-linux-gnu/libLLVM-9.so.1
   fun:__pthread_once_slow
   fun:_ZN4llvm33initializeMachineVerifierPassPassERNS_12PassRegistryE
   fun:_ZN4llvm17initializeCodeGenERNS_12PassRegistryE
   fun:_ZN4llvm16TargetPassConfigC1ERNS_17LLVMTargetMachineERNS_6legacy15PassManagerBaseE
   fun:_ZN4llvm16GCNTargetMachine16createPassConfigERNS_6legacy15PassManagerBaseE
   fun:_ZN4llvm17LLVMTargetMachine19addPassesToEmitFileERNS_6legacy15PassManagerBaseERNS_17raw_pwrite_streamEPS4_NS_13TargetMachine15CodeGenFileTypeEbPNS_17MachineModuleInfoE
   obj:/usr/lib/x86_64-linux-gnu/dri/radeonsi_dri.so
   obj:/usr/lib/x86_64-linux-gnu/dri/radeonsi_dri.so
}
{
   <insert_a_suppression_name_here>
   Memcheck:Leak
   match-leak-kinds: reachable
   fun:malloc
   obj:/usr/lib/x86_64-linux-gnu/libLLVM-9.so.1
   fun:_ZN4llvm12PassRegistry12registerPassERKNS_8PassInfoEb
   obj:/usr/lib/x86_64-linux-gnu/libLLVM-9.so.1
   fun:__pthread_once_slow
   fun:_ZN4llvm28initializeStackProtectorPassERNS_12PassRegistryE
   fun:_ZN4llvm17initializeCodeGenERNS_12PassRegistryE
   fun:_ZN4llvm16TargetPassConfigC1ERNS_17LLVMTargetMachineERNS_6legacy15PassManagerBaseE
   fun:_ZN4llvm16GCNTargetMachine16createPassConfigERNS_6legacy15PassManagerBaseE
   fun:_ZN4llvm17LLVMTargetMachine19addPassesToEmitFileERNS_6legacy15PassManagerBaseERNS_17raw_pwrite_streamEPS4_NS_13TargetMachine15CodeGenFileTypeEbPNS_17MachineModuleInfoE
   obj:/usr/lib/x86_64-linux-gnu/dri/radeonsi_dri.so
   obj:/usr/lib/x86_64-linux-gnu/dri/radeonsi_dri.so
}
{
   <insert_a_suppression_name_here>
   Memcheck:Leak
   match-leak-kinds: reachable
   fun:malloc
   obj:/usr/lib/x86_64-linux-gnu/libLLVM-9.so.1
   fun:_ZN4llvm12PassRegistry12registerPassERKNS_8PassInfoEb
   obj:/usr/lib/x86_64-linux-gnu/libLLVM-9.so.1
   fun:__pthread_once_slow
   fun:_ZN4llvm27initializeTailDuplicatePassERNS_12PassRegistryE
   fun:_ZN4llvm17initializeCodeGenERNS_12PassRegistryE
   fun:_ZN4llvm16TargetPassConfigC1ERNS_17LLVMTargetMachineERNS_6legacy15PassManagerBaseE
   fun:_ZN4llvm16GCNTargetMachine16createPassConfigERNS_6legacy15PassManagerBaseE
   fun:_ZN4llvm17LLVMTargetMachine19addPassesToEmitFileERNS_6legacy15PassManagerBaseERNS_17raw_pwrite_streamEPS4_NS_13TargetMachine15CodeGenFileTypeEbPNS_17MachineModuleInfoE
   obj:/usr/lib/x86_64-linux-gnu/dri/radeonsi_dri.so
   obj:/usr/lib/x86_64-linux-gnu/dri/radeonsi_dri.so
}
{
   <insert_a_suppression_name_here>
   Memcheck:Leak
   match-leak-kinds: reachable
   fun:malloc
   obj:/usr/lib/x86_64-linux-gnu/libLLVM-9.so.1
   fun:_ZN4llvm12PassRegistry12registerPassERKNS_8PassInfoEb
   obj:/usr/lib/x86_64-linux-gnu/libLLVM-9.so.1
   fun:__pthread_once_slow
   fun:_ZN4llvm29initializeVirtRegRewriterPassERNS_12PassRegistryE
   fun:_ZN4llvm17initializeCodeGenERNS_12PassRegistryE
   fun:_ZN4llvm16TargetPassConfigC1ERNS_17LLVMTargetMachineERNS_6legacy15PassManagerBaseE
   fun:_ZN4llvm16GCNTargetMachine16createPassConfigERNS_6legacy15PassManagerBaseE
   fun:_ZN4llvm17LLVMTargetMachine19addPassesToEmitFileERNS_6legacy15PassManagerBaseERNS_17raw_pwrite_streamEPS4_NS_13TargetMachine15CodeGenFileTypeEbPNS_17MachineModuleInfoE
   obj:/usr/lib/x86_64-linux-gnu/dri/radeonsi_dri.so
   obj:/usr/lib/x86_64-linux-gnu/dri/radeonsi_dri.so
}
{
   <insert_a_suppression_name_here>
   Memcheck:Leak
   match-leak-kinds: reachable
   fun:malloc
   obj:/usr/lib/x86_64-linux-gnu/libLLVM-9.so.1
   fun:_ZN4llvm12PassRegistry12registerPassERKNS_8PassInfoEb
   obj:/usr/lib/x86_64-linux-gnu/libLLVM-9.so.1
   fun:__pthread_once_slow
   fun:_ZN4llvm24createRewriteSymbolsPassEv
   fun:_ZN4llvm16TargetPassConfig17addCodeGenPrepareEv
   obj:/usr/lib/x86_64-linux-gnu/libLLVM-9.so.1
   fun:_ZN4llvm16TargetPassConfig13addISelPassesEv
   fun:_ZN4llvm17LLVMTargetMachine19addPassesToEmitFileERNS_6legacy15PassManagerBaseERNS_17raw_pwrite_streamEPS4_NS_13TargetMachine15CodeGenFileTypeEbPNS_17MachineModuleInfoE
   obj:/usr/lib/x86_64-linux-gnu/dri/radeonsi_dri.so
   obj:/usr/lib/x86_64-linux-gnu/dri/radeonsi_dri.so
}
{
   <insert_a_suppression_name_here>
   Memcheck:Leak
   match-leak-kinds: reachable
   fun:malloc
   obj:/usr/lib/x86_64-linux-gnu/libLLVM-9.so.1
   fun:_ZN4llvm12PassRegistry12registerPassERKNS_8PassInfoEb
   obj:/usr/lib/x86_64-linux-gnu/libLLVM-9.so.1
   fun:__pthread_once_slow
   fun:_ZN4llvm38initializeLazyValueInfoWrapperPassPassERNS_12PassRegistryE
   obj:/usr/lib/x86_64-linux-gnu/libLLVM-9.so.1
   fun:__pthread_once_slow
   fun:_ZN4llvm21createLowerSwitchPassEv
   obj:/usr/lib/x86_64-linux-gnu/libLLVM-9.so.1
   fun:_ZN4llvm16TargetPassConfig14addISelPrepareEv
   fun:_ZN4llvm16TargetPassConfig13addISelPassesEv
}
{
   <insert_a_suppression_name_here>
   Memcheck:Leak
   match-leak-kinds: reachable
   fun:malloc
   obj:/usr/lib/x86_64-linux-gnu/libLLVM-9.so.1
   fun:_ZN4llvm12PassRegistry12registerPassERKNS_8PassInfoEb
   obj:/usr/lib/x86_64-linux-gnu/libLLVM-9.so.1
   fun:__pthread_once_slow
   fun:_ZN4llvm30initializeTargetPassConfigPassERNS_12PassRegistryE
   obj:/usr/lib/x86_64-linux-gnu/libLLVM-9.so.1
   fun:__pthread_once_slow
   fun:_ZN4llvm26initializeIRTranslatorPassERNS_12PassRegistryE
   fun:_ZN4llvm20initializeGlobalISelERNS_12PassRegistryE
   fun:LLVMInitializeAMDGPUTarget
   obj:/usr/lib/x86_64-linux-gnu/dri/radeonsi_dri.so
}
{
   <insert_a_suppression_name_here>
   Memcheck:Leak
   match-leak-kinds: reachable
   fun:malloc
   obj:/usr/lib/x86_64-linux-gnu/libLLVM-9.so.1
   fun:_ZN4llvm12PassRegistry12registerPassERKNS_8PassInfoEb
   obj:/usr/lib/x86_64-linux-gnu/libLLVM-9.so.1
   fun:__pthread_once_slow
   fun:_ZN4llvm36initializeAMDGPUPerfHintAnalysisPassERNS_12PassRegistryE
   obj:/usr/lib/x86_64-linux-gnu/libLLVM-9.so.1
   fun:__pthread_once_slow
   fun:_ZN4llvm32initializeAMDGPUDAGToDAGISelPassERNS_12PassRegistryE
   fun:LLVMInitializeAMDGPUTarget
   obj:/usr/lib/x86_64-linux-gnu/dri/radeonsi_dri.so
   fun:__pthread_once_slow
}
{
   <insert_a_suppression_name_here>
   Memcheck:Leak
   match-leak-kinds: reachable
   fun:malloc
   obj:/usr/lib/x86_64-linux-gnu/libLLVM-9.so.1
   fun:_ZN4llvm12PassRegistry12registerPassERKNS_8PassInfoEb
   obj:/usr/lib/x86_64-linux-gnu/libLLVM-9.so.1
   fun:__pthread_once_slow
   fun:_ZN4llvm28initializeSIFoldOperandsPassERNS_12PassRegistryE
   fun:LLVMInitializeAMDGPUTarget
   obj:/usr/lib/x86_64-linux-gnu/dri/radeonsi_dri.so
   fun:__pthread_once_slow
   obj:/usr/lib/x86_64-linux-gnu/dri/radeonsi_dri.so
   obj:/usr/lib/x86_64-linux-gnu/dri/radeonsi_dri.so
   obj:/usr/lib/x86_64-linux-gnu/dri/radeonsi_dri.so
}
{
   <insert_a_suppression_name_here>
   Memcheck:Leak
   match-leak-kinds: reachable
   fun:malloc
   obj:/usr/lib/x86_64-linux-gnu/libLLVM-9.so.1
   fun:_ZN4llvm12PassRegistry12registerPassERKNS_8PassInfoEb
   obj:/usr/lib/x86_64-linux-gnu/libLLVM-9.so.1
   fun:__pthread_once_slow
   fun:_ZN4llvm28initializeSIPeepholeSDWAPassERNS_12PassRegistryE
   fun:LLVMInitializeAMDGPUTarget
   obj:/usr/lib/x86_64-linux-gnu/dri/radeonsi_dri.so
   fun:__pthread_once_slow
   obj:/usr/lib/x86_64-linux-gnu/dri/radeonsi_dri.so
   obj:/usr/lib/x86_64-linux-gnu/dri/radeonsi_dri.so
   obj:/usr/lib/x86_64-linux-gnu/dri/radeonsi_dri.so
}
{
   <insert_a_suppression_name_here>
   Memcheck:Leak
   match-leak-kinds: reachable
   fun:malloc
   obj:/usr/lib/x86_64-linux-gnu/libLLVM-9.so.1
   fun:_ZN4llvm12PassRegistry12registerPassERKNS_8PassInfoEb
   obj:/usr/lib/x86_64-linux-gnu/libLLVM-9.so.1
   fun:__pthread_once_slow
   fun:_ZN4llvm40initializeScalarEvolutionWrapperPassPassERNS_12PassRegistryE
   obj:/usr/lib/x86_64-linux-gnu/libLLVM-9.so.1
   fun:__pthread_once_slow
   fun:_ZN4llvm31initializeSCEVAAWrapperPassPassERNS_12PassRegistryE
   obj:/usr/lib/x86_64-linux-gnu/libLLVM-9.so.1
   fun:__pthread_once_slow
   fun:_ZN4llvm34initializeAAResultsWrapperPassPassERNS_12PassRegistryE
}
{
   <insert_a_suppression_name_here>
   Memcheck:Leak
   match-leak-kinds: reachable
   fun:malloc
   obj:/usr/lib/x86_64-linux-gnu/libLLVM-9.so.1
   fun:_ZN4llvm12PassRegistry12registerPassERKNS_8PassInfoEb
   obj:/usr/lib/x86_64-linux-gnu/libLLVM-9.so.1
   fun:__pthread_once_slow
   fun:_ZN4llvm28initializeSIModeRegisterPassERNS_12PassRegistryE
   fun:LLVMInitializeAMDGPUTarget
   obj:/usr/lib/x86_64-linux-gnu/dri/radeonsi_dri.so
   fun:__pthread_once_slow
   obj:/usr/lib/x86_64-linux-gnu/dri/radeonsi_dri.so
   obj:/usr/lib/x86_64-linux-gnu/dri/radeonsi_dri.so
   obj:/usr/lib/x86_64-linux-gnu/dri/radeonsi_dri.so
}
{
   <insert_a_suppression_name_here>
   Memcheck:Leak
   match-leak-kinds: reachable
   fun:malloc
   obj:/usr/lib/x86_64-linux-gnu/libLLVM-9.so.1
   fun:_ZN4llvm12PassRegistry12registerPassERKNS_8PassInfoEb
   obj:/usr/lib/x86_64-linux-gnu/libLLVM-9.so.1
   fun:__pthread_once_slow
   fun:_ZN4llvm34initializeAMDGPUUseNativeCallsPassERNS_12PassRegistryE
   fun:LLVMInitializeAMDGPUTarget
   obj:/usr/lib/x86_64-linux-gnu/dri/radeonsi_dri.so
   fun:__pthread_once_slow
   obj:/usr/lib/x86_64-linux-gnu/dri/radeonsi_dri.so
   obj:/usr/lib/x86_64-linux-gnu/dri/radeonsi_dri.so
   obj:/usr/lib/x86_64-linux-gnu/dri/radeonsi_dri.so
}
{
   <insert_a_suppression_name_here>
   Memcheck:Leak
   match-leak-kinds: reachable
   fun:malloc
   obj:/usr/lib/x86_64-linux-gnu/libLLVM-9.so.1
   fun:_ZN4llvm12PassRegistry12registerPassERKNS_8PassInfoEb
   obj:/usr/lib/x86_64-linux-gnu/libLLVM-9.so.1
   fun:__pthread_once_slow
   fun:_ZN4llvm18createEarlyCSEPassEb
   fun:LLVMAddEarlyCSEMemSSAPass
   obj:/usr/lib/x86_64-linux-gnu/dri/radeonsi_dri.so
   obj:/usr/lib/x86_64-linux-gnu/dri/radeonsi_dri.so
   obj:/usr/lib/x86_64-linux-gnu/dri/radeonsi_dri.so
   obj:/usr/lib/x86_64-linux-gnu/dri/radeonsi_dri.so
   obj:/usr/lib/x86_64-linux-gnu/dri/radeonsi_dri.so
}
{
   <insert_a_suppression_name_here>
   Memcheck:Leak
   match-leak-kinds: reachable
   fun:malloc
   obj:/usr/lib/x86_64-linux-gnu/libLLVM-9.so.1
   fun:_ZN4llvm12PassRegistry12registerPassERKNS_8PassInfoEb
   obj:/usr/lib/x86_64-linux-gnu/libLLVM-9.so.1
   fun:__pthread_once_slow
   fun:_ZN4llvm25initializeLazyBPIPassPassERNS_12PassRegistryE
   fun:_ZN4llvm25initializeLazyBFIPassPassERNS_12PassRegistryE
   obj:/usr/lib/x86_64-linux-gnu/libLLVM-9.so.1
   fun:__pthread_once_slow
   fun:_ZN4llvm50initializeOptimizationRemarkEmitterWrapperPassPassERNS_12PassRegistryE
   obj:/usr/lib/x86_64-linux-gnu/libLLVM-9.so.1
   fun:__pthread_once_slow
}
{
   <insert_a_suppression_name_here>
   Memcheck:Leak
   match-leak-kinds: reachable
   fun:malloc
   obj:/usr/lib/x86_64-linux-gnu/libLLVM-9.so.1
   fun:_ZN4llvm12PassRegistry12registerPassERKNS_8PassInfoEb
   obj:/usr/lib/x86_64-linux-gnu/libLLVM-9.so.1
   fun:__pthread_once_slow
   fun:_ZN4llvm29initializeMachineCombinerPassERNS_12PassRegistryE
   fun:_ZN4llvm17initializeCodeGenERNS_12PassRegistryE
   fun:_ZN4llvm16TargetPassConfigC1ERNS_17LLVMTargetMachineERNS_6legacy15PassManagerBaseE
   fun:_ZN4llvm16GCNTargetMachine16createPassConfigERNS_6legacy15PassManagerBaseE
   fun:_ZN4llvm17LLVMTargetMachine19addPassesToEmitFileERNS_6legacy15PassManagerBaseERNS_17raw_pwrite_streamEPS4_NS_13TargetMachine15CodeGenFileTypeEbPNS_17MachineModuleInfoE
   obj:/usr/lib/x86_64-linux-gnu/dri/radeonsi_dri.so
   obj:/usr/lib/x86_64-linux-gnu/dri/radeonsi_dri.so
}
{
   <insert_a_suppression_name_here>
   Memcheck:Leak
   match-leak-kinds: reachable
   fun:malloc
   obj:/usr/lib/x86_64-linux-gnu/libLLVM-9.so.1
   fun:_ZN4llvm12PassRegistry12registerPassERKNS_8PassInfoEb
   obj:/usr/lib/x86_64-linux-gnu/libLLVM-9.so.1
   fun:__pthread_once_slow
   fun:_ZN4llvm29initializeMachineOutlinerPassERNS_12PassRegistryE
   fun:_ZN4llvm17initializeCodeGenERNS_12PassRegistryE
   fun:_ZN4llvm16TargetPassConfigC1ERNS_17LLVMTargetMachineERNS_6legacy15PassManagerBaseE
   fun:_ZN4llvm16GCNTargetMachine16createPassConfigERNS_6legacy15PassManagerBaseE
   fun:_ZN4llvm17LLVMTargetMachine19addPassesToEmitFileERNS_6legacy15PassManagerBaseERNS_17raw_pwrite_streamEPS4_NS_13TargetMachine15CodeGenFileTypeEbPNS_17MachineModuleInfoE
   obj:/usr/lib/x86_64-linux-gnu/dri/radeonsi_dri.so
   obj:/usr/lib/x86_64-linux-gnu/dri/radeonsi_dri.so
}
{
   <insert_a_suppression_name_here>
   Memcheck:Leak
   match-leak-kinds: reachable
   fun:malloc
   obj:/usr/lib/x86_64-linux-gnu/libLLVM-9.so.1
   fun:_ZN4llvm12PassRegistry12registerPassERKNS_8PassInfoEb
   obj:/usr/lib/x86_64-linux-gnu/libLLVM-9.so.1
   fun:__pthread_once_slow
   fun:_ZN4llvm25createNaryReassociatePassEv
   obj:/usr/lib/x86_64-linux-gnu/libLLVM-9.so.1
   fun:_ZN4llvm16TargetPassConfig13addISelPassesEv
   fun:_ZN4llvm17LLVMTargetMachine19addPassesToEmitFileERNS_6legacy15PassManagerBaseERNS_17raw_pwrite_streamEPS4_NS_13TargetMachine15CodeGenFileTypeEbPNS_17MachineModuleInfoE
   obj:/usr/lib/x86_64-linux-gnu/dri/radeonsi_dri.so
   obj:/usr/lib/x86_64-linux-gnu/dri/radeonsi_dri.so
   obj:/usr/lib/x86_64-linux-gnu/dri/radeonsi_dri.so
}
{
   <insert_a_suppression_name_here>
   Memcheck:Leak
   match-leak-kinds: reachable
   fun:malloc
   obj:/usr/lib/x86_64-linux-gnu/libLLVM-9.so.1
   fun:_ZN4llvm12PassRegistry12registerPassERKNS_8PassInfoEb
   obj:/usr/lib/x86_64-linux-gnu/libLLVM-9.so.1
   fun:__pthread_once_slow
   fun:_ZN4llvm34initializeSILoadStoreOptimizerPassERNS_12PassRegistryE
   fun:LLVMInitializeAMDGPUTarget
   obj:/usr/lib/x86_64-linux-gnu/dri/radeonsi_dri.so
   fun:__pthread_once_slow
   obj:/usr/lib/x86_64-linux-gnu/dri/radeonsi_dri.so
   obj:/usr/lib/x86_64-linux-gnu/dri/radeonsi_dri.so
   obj:/usr/lib/x86_64-linux-gnu/dri/radeonsi_dri.so
}
{
   <insert_a_suppression_name_here>
   Memcheck:Leak
   match-leak-kinds: reachable
   fun:malloc
   obj:/usr/lib/x86_64-linux-gnu/libLLVM-9.so.1
   fun:_ZN4llvm12PassRegistry12registerPassERKNS_8PassInfoEb
   obj:/usr/lib/x86_64-linux-gnu/libLLVM-9.so.1
   fun:__pthread_once_slow
   fun:_ZN4llvm37initializeAMDGPUExternalAAWrapperPassERNS_12PassRegistryE
   fun:LLVMInitializeAMDGPUTarget
   obj:/usr/lib/x86_64-linux-gnu/dri/radeonsi_dri.so
   fun:__pthread_once_slow
   obj:/usr/lib/x86_64-linux-gnu/dri/radeonsi_dri.so
   obj:/usr/lib/x86_64-linux-gnu/dri/radeonsi_dri.so
   obj:/usr/lib/x86_64-linux-gnu/dri/radeonsi_dri.so
}
{
   <insert_a_suppression_name_here>
   Memcheck:Leak
   match-leak-kinds: reachable
   fun:malloc
   obj:/usr/lib/x86_64-linux-gnu/libLLVM-9.so.1
   fun:_ZN4llvm12PassRegistry12registerPassERKNS_8PassInfoEb
   obj:/usr/lib/x86_64-linux-gnu/libLLVM-9.so.1
   fun:__pthread_once_slow
   fun:_ZN4llvm17MachineModuleInfoC1EPKNS_17LLVMTargetMachineE
   fun:_ZN4llvm17LLVMTargetMachine19addPassesToEmitFileERNS_6legacy15PassManagerBaseERNS_17raw_pwrite_streamEPS4_NS_13TargetMachine15CodeGenFileTypeEbPNS_17MachineModuleInfoE
   obj:/usr/lib/x86_64-linux-gnu/dri/radeonsi_dri.so
   obj:/usr/lib/x86_64-linux-gnu/dri/radeonsi_dri.so
   obj:/usr/lib/x86_64-linux-gnu/dri/radeonsi_dri.so
   obj:/usr/lib/x86_64-linux-gnu/dri/radeonsi_dri.so
   obj:/usr/lib/x86_64-linux-gnu/dri/radeonsi_dri.so
}
{
   <insert_a_suppression_name_here>
   Memcheck:Leak
   match-leak-kinds: reachable
   fun:malloc
   obj:/usr/lib/x86_64-linux-gnu/libLLVM-9.so.1
   fun:_ZN4llvm12PassRegistry12registerPassERKNS_8PassInfoEb
   obj:/usr/lib/x86_64-linux-gnu/libLLVM-9.so.1
   fun:__pthread_once_slow
   fun:_ZN4llvm30initializeBranchRelaxationPassERNS_12PassRegistryE
   fun:_ZN4llvm17initializeCodeGenERNS_12PassRegistryE
   fun:_ZN4llvm16TargetPassConfigC1ERNS_17LLVMTargetMachineERNS_6legacy15PassManagerBaseE
   fun:_ZN4llvm16GCNTargetMachine16createPassConfigERNS_6legacy15PassManagerBaseE
   fun:_ZN4llvm17LLVMTargetMachine19addPassesToEmitFileERNS_6legacy15PassManagerBaseERNS_17raw_pwrite_streamEPS4_NS_13TargetMachine15CodeGenFileTypeEbPNS_17MachineModuleInfoE
   obj:/usr/lib/x86_64-linux-gnu/dri/radeonsi_dri.so
   obj:/usr/lib/x86_64-linux-gnu/dri/radeonsi_dri.so
}
{
   <insert_a_suppression_name_here>
   Memcheck:Leak
   match-leak-kinds: reachable
   fun:malloc
   obj:/usr/lib/x86_64-linux-gnu/libLLVM-9.so.1
   fun:_ZN4llvm12PassRegistry12registerPassERKNS_8PassInfoEb
   obj:/usr/lib/x86_64-linux-gnu/libLLVM-9.so.1
   fun:__pthread_once_slow
   fun:_ZN4llvm29initializeDetectDeadLanesPassERNS_12PassRegistryE
   fun:_ZN4llvm17initializeCodeGenERNS_12PassRegistryE
   fun:_ZN4llvm16TargetPassConfigC1ERNS_17LLVMTargetMachineERNS_6legacy15PassManagerBaseE
   fun:_ZN4llvm16GCNTargetMachine16createPassConfigERNS_6legacy15PassManagerBaseE
   fun:_ZN4llvm17LLVMTargetMachine19addPassesToEmitFileERNS_6legacy15PassManagerBaseERNS_17raw_pwrite_streamEPS4_NS_13TargetMachine15CodeGenFileTypeEbPNS_17MachineModuleInfoE
   obj:/usr/lib/x86_64-linux-gnu/dri/radeonsi_dri.so
   obj:/usr/lib/x86_64-linux-gnu/dri/radeonsi_dri.so
}
{
   <insert_a_suppression_name_here>
   Memcheck:Leak
   match-leak-kinds: reachable
   fun:malloc
   obj:/usr/lib/x86_64-linux-gnu/libLLVM-9.so.1
   fun:_ZN4llvm12PassRegistry12registerPassERKNS_8PassInfoEb
   obj:/usr/lib/x86_64-linux-gnu/libLLVM-9.so.1
   fun:__pthread_once_slow
   fun:_ZN4llvm30initializeEarlyMachineLICMPassERNS_12PassRegistryE
   fun:_ZN4llvm17initializeCodeGenERNS_12PassRegistryE
   fun:_ZN4llvm16TargetPassConfigC1ERNS_17LLVMTargetMachineERNS_6legacy15PassManagerBaseE
   fun:_ZN4llvm16GCNTargetMachine16createPassConfigERNS_6legacy15PassManagerBaseE
   fun:_ZN4llvm17LLVMTargetMachine19addPassesToEmitFileERNS_6legacy15PassManagerBaseERNS_17raw_pwrite_streamEPS4_NS_13TargetMachine15CodeGenFileTypeEbPNS_17MachineModuleInfoE
   obj:/usr/lib/x86_64-linux-gnu/dri/radeonsi_dri.so
   obj:/usr/lib/x86_64-linux-gnu/dri/radeonsi_dri.so
}
{
   <insert_a_suppression_name_here>
   Memcheck:Leak
   match-leak-kinds: reachable
   fun:malloc
   obj:/usr/lib/x86_64-linux-gnu/libLLVM-9.so.1
   fun:_ZN4llvm12PassRegistry12registerPassERKNS_8PassInfoEb
   obj:/usr/lib/x86_64-linux-gnu/libLLVM-9.so.1
   fun:__pthread_once_slow
   fun:_ZN4llvm34initializeIndirectBrExpandPassPassERNS_12PassRegistryE
   fun:_ZN4llvm17initializeCodeGenERNS_12PassRegistryE
   fun:_ZN4llvm16TargetPassConfigC1ERNS_17LLVMTargetMachineERNS_6legacy15PassManagerBaseE
   fun:_ZN4llvm16GCNTargetMachine16createPassConfigERNS_6legacy15PassManagerBaseE
   fun:_ZN4llvm17LLVMTargetMachine19addPassesToEmitFileERNS_6legacy15PassManagerBaseERNS_17raw_pwrite_streamEPS4_NS_13TargetMachine15CodeGenFileTypeEbPNS_17MachineModuleInfoE
   obj:/usr/lib/x86_64-linux-gnu/dri/radeonsi_dri.so
   obj:/usr/lib/x86_64-linux-gnu/dri/radeonsi_dri.so
}
{
   <insert_a_suppression_name_here>
   Memcheck:Leak
   match-leak-kinds: reachable
   fun:malloc
   obj:/usr/lib/x86_64-linux-gnu/libLLVM-9.so.1
   fun:_ZN4llvm12PassRegistry12registerPassERKNS_8PassInfoEb
   obj:/usr/lib/x86_64-linux-gnu/libLLVM-9.so.1
   fun:__pthread_once_slow
   fun:_ZN4llvm30initializeMIRCanonicalizerPassERNS_12PassRegistryE
   fun:_ZN4llvm17initializeCodeGenERNS_12PassRegistryE
   fun:_ZN4llvm16TargetPassConfigC1ERNS_17LLVMTargetMachineERNS_6legacy15PassManagerBaseE
   fun:_ZN4llvm16GCNTargetMachine16createPassConfigERNS_6legacy15PassManagerBaseE
   fun:_ZN4llvm17LLVMTargetMachine19addPassesToEmitFileERNS_6legacy15PassManagerBaseERNS_17raw_pwrite_streamEPS4_NS_13TargetMachine15CodeGenFileTypeEbPNS_17MachineModuleInfoE
   obj:/usr/lib/x86_64-linux-gnu/dri/radeonsi_dri.so
   obj:/usr/lib/x86_64-linux-gnu/dri/radeonsi_dri.so
}
{
   <insert_a_suppression_name_here>
   Memcheck:Leak
   match-leak-kinds: reachable
   fun:malloc
   obj:/usr/lib/x86_64-linux-gnu/libLLVM-9.so.1
   fun:_ZN4llvm12PassRegistry12registerPassERKNS_8PassInfoEb
   obj:/usr/lib/x86_64-linux-gnu/libLLVM-9.so.1
   fun:__pthread_once_slow
   fun:_ZN4llvm30initializeMachineSchedulerPassERNS_12PassRegistryE
   fun:_ZN4llvm17initializeCodeGenERNS_12PassRegistryE
   fun:_ZN4llvm16TargetPassConfigC1ERNS_17LLVMTargetMachineERNS_6legacy15PassManagerBaseE
   fun:_ZN4llvm16GCNTargetMachine16createPassConfigERNS_6legacy15PassManagerBaseE
   fun:_ZN4llvm17LLVMTargetMachine19addPassesToEmitFileERNS_6legacy15PassManagerBaseERNS_17raw_pwrite_streamEPS4_NS_13TargetMachine15CodeGenFileTypeEbPNS_17MachineModuleInfoE
   obj:/usr/lib/x86_64-linux-gnu/dri/radeonsi_dri.so
   obj:/usr/lib/x86_64-linux-gnu/dri/radeonsi_dri.so
}
{
   <insert_a_suppression_name_here>
   Memcheck:Leak
   match-leak-kinds: reachable
   fun:malloc
   obj:/usr/lib/x86_64-linux-gnu/libLLVM-9.so.1
   fun:_ZN4llvm12PassRegistry12registerPassERKNS_8PassInfoEb
   obj:/usr/lib/x86_64-linux-gnu/libLLVM-9.so.1
   fun:__pthread_once_slow
   fun:_ZN4llvm30initializeStackMapLivenessPassERNS_12PassRegistryE
   fun:_ZN4llvm17initializeCodeGenERNS_12PassRegistryE
   fun:_ZN4llvm16TargetPassConfigC1ERNS_17LLVMTargetMachineERNS_6legacy15PassManagerBaseE
   fun:_ZN4llvm16GCNTargetMachine16createPassConfigERNS_6legacy15PassManagerBaseE
   fun:_ZN4llvm17LLVMTargetMachine19addPassesToEmitFileERNS_6legacy15PassManagerBaseERNS_17raw_pwrite_streamEPS4_NS_13TargetMachine15CodeGenFileTypeEbPNS_17MachineModuleInfoE
   obj:/usr/lib/x86_64-linux-gnu/dri/radeonsi_dri.so
   obj:/usr/lib/x86_64-linux-gnu/dri/radeonsi_dri.so
}
{
   <insert_a_suppression_name_here>
   Memcheck:Leak
   match-leak-kinds: reachable
   fun:malloc
   obj:/usr/lib/x86_64-linux-gnu/libLLVM-9.so.1
   fun:_ZN4llvm12PassRegistry12registerPassERKNS_8PassInfoEb
   obj:/usr/lib/x86_64-linux-gnu/libLLVM-9.so.1
   fun:__pthread_once_slow
   fun:_ZN4llvm34initializeUnpackMachineBundlesPassERNS_12PassRegistryE
   fun:_ZN4llvm17initializeCodeGenERNS_12PassRegistryE
   fun:_ZN4llvm16TargetPassConfigC1ERNS_17LLVMTargetMachineERNS_6legacy15PassManagerBaseE
   fun:_ZN4llvm16GCNTargetMachine16createPassConfigERNS_6legacy15PassManagerBaseE
   fun:_ZN4llvm17LLVMTargetMachine19addPassesToEmitFileERNS_6legacy15PassManagerBaseERNS_17raw_pwrite_streamEPS4_NS_13TargetMachine15CodeGenFileTypeEbPNS_17MachineModuleInfoE
   obj:/usr/lib/x86_64-linux-gnu/dri/radeonsi_dri.so
   obj:/usr/lib/x86_64-linux-gnu/dri/radeonsi_dri.so
}
{
   <insert_a_suppression_name_here>
   Memcheck:Leak
   match-leak-kinds: reachable
   fun:malloc
   obj:/usr/lib/x86_64-linux-gnu/libLLVM-9.so.1
   fun:_ZN4llvm12PassRegistry12registerPassERKNS_8PassInfoEb
   obj:/usr/lib/x86_64-linux-gnu/libLLVM-9.so.1
   fun:__pthread_once_slow
   fun:_ZN4llvm26createExpandReductionsPassEv
   fun:_ZN4llvm16TargetPassConfig11addIRPassesEv
   obj:/usr/lib/x86_64-linux-gnu/libLLVM-9.so.1
   fun:_ZN4llvm16TargetPassConfig13addISelPassesEv
   fun:_ZN4llvm17LLVMTargetMachine19addPassesToEmitFileERNS_6legacy15PassManagerBaseERNS_17raw_pwrite_streamEPS4_NS_13TargetMachine15CodeGenFileTypeEbPNS_17MachineModuleInfoE
   obj:/usr/lib/x86_64-linux-gnu/dri/radeonsi_dri.so
   obj:/usr/lib/x86_64-linux-gnu/dri/radeonsi_dri.so
}
{
   <insert_a_suppression_name_here>
   Memcheck:Leak
   match-leak-kinds: reachable
   fun:malloc
   obj:/usr/lib/x86_64-linux-gnu/libLLVM-9.so.1
   obj:/usr/lib/x86_64-linux-gnu/libLLVM-9.so.1
   fun:_ZN4llvm2cl6Option11addArgumentEv
   obj:/usr/lib/x86_64-linux-gnu/libLLVM-9.so.1
   obj:/usr/lib/x86_64-linux-gnu/libLLVM-9.so.1
   fun:call_init.part.0
   fun:call_init
   fun:_dl_init
   fun:_dl_catch_exception
   fun:dl_open_worker
   fun:_dl_catch_exception
   fun:_dl_open
}
{
   <insert_a_suppression_name_here>
   Memcheck:Leak
   match-leak-kinds: reachable
   fun:malloc
   obj:/usr/lib/x86_64-linux-gnu/libLLVM-9.so.1
   fun:_ZN4llvm12PassRegistry12registerPassERKNS_8PassInfoEb
   obj:/usr/lib/x86_64-linux-gnu/libLLVM-9.so.1
   fun:__pthread_once_slow
   fun:_ZN4llvm39initializeMachineBlockFrequencyInfoPassERNS_12PassRegistryE
   obj:/usr/lib/x86_64-linux-gnu/libLLVM-9.so.1
   fun:__pthread_once_slow
   fun:_ZN4llvm27initializeRegBankSelectPassERNS_12PassRegistryE
   fun:_ZN4llvm20initializeGlobalISelERNS_12PassRegistryE
   fun:LLVMInitializeAMDGPUTarget
   obj:/usr/lib/x86_64-linux-gnu/dri/radeonsi_dri.so
}
{
   <insert_a_suppression_name_here>
   Memcheck:Leak
   match-leak-kinds: reachable
   fun:malloc
   obj:/usr/lib/x86_64-linux-gnu/libLLVM-9.so.1
   fun:_ZN4llvm12PassRegistry12registerPassERKNS_8PassInfoEb
   obj:/usr/lib/x86_64-linux-gnu/libLLVM-9.so.1
   fun:__pthread_once_slow
   fun:_ZN4llvm31initializeInstructionSelectPassERNS_12PassRegistryE
   fun:LLVMInitializeAMDGPUTarget
   obj:/usr/lib/x86_64-linux-gnu/dri/radeonsi_dri.so
   fun:__pthread_once_slow
   obj:/usr/lib/x86_64-linux-gnu/dri/radeonsi_dri.so
   obj:/usr/lib/x86_64-linux-gnu/dri/radeonsi_dri.so
   obj:/usr/lib/x86_64-linux-gnu/dri/radeonsi_dri.so
}
{
   <insert_a_suppression_name_here>
   Memcheck:Leak
   match-leak-kinds: reachable
   fun:malloc
   obj:/usr/lib/x86_64-linux-gnu/libLLVM-9.so.1
   fun:_ZN4llvm12PassRegistry12registerPassERKNS_8PassInfoEb
   obj:/usr/lib/x86_64-linux-gnu/libLLVM-9.so.1
   fun:__pthread_once_slow
   fun:_ZN4llvm38initializeMachinePostDominatorTreePassERNS_12PassRegistryE
   obj:/usr/lib/x86_64-linux-gnu/libLLVM-9.so.1
   fun:__pthread_once_slow
   fun:_ZN4llvm29initializeSILowerI1CopiesPassERNS_12PassRegistryE
   fun:LLVMInitializeAMDGPUTarget
   obj:/usr/lib/x86_64-linux-gnu/dri/radeonsi_dri.so
   fun:__pthread_once_slow
}
{
   <insert_a_suppression_name_here>
   Memcheck:Leak
   match-leak-kinds: reachable
   fun:malloc
   obj:/usr/lib/x86_64-linux-gnu/libLLVM-9.so.1
   fun:_ZN4llvm12PassRegistry12registerPassERKNS_8PassInfoEb
   obj:/usr/lib/x86_64-linux-gnu/libLLVM-9.so.1
   fun:__pthread_once_slow
   fun:_ZN4llvm29initializeSIFixSGPRCopiesPassERNS_12PassRegistryE
   fun:LLVMInitializeAMDGPUTarget
   obj:/usr/lib/x86_64-linux-gnu/dri/radeonsi_dri.so
   fun:__pthread_once_slow
   obj:/usr/lib/x86_64-linux-gnu/dri/radeonsi_dri.so
   obj:/usr/lib/x86_64-linux-gnu/dri/radeonsi_dri.so
   obj:/usr/lib/x86_64-linux-gnu/dri/radeonsi_dri.so
}
{
   <insert_a_suppression_name_here>
   Memcheck:Leak
   match-leak-kinds: reachable
   fun:malloc
   obj:/usr/lib/x86_64-linux-gnu/libLLVM-9.so.1
   fun:_ZN4llvm12PassRegistry12registerPassERKNS_8PassInfoEb
   obj:/usr/lib/x86_64-linux-gnu/libLLVM-9.so.1
   fun:__pthread_once_slow
   fun:_ZN4llvm29initializeSIFixVGPRCopiesPassERNS_12PassRegistryE
   fun:LLVMInitializeAMDGPUTarget
   obj:/usr/lib/x86_64-linux-gnu/dri/radeonsi_dri.so
   fun:__pthread_once_slow
   obj:/usr/lib/x86_64-linux-gnu/dri/radeonsi_dri.so
   obj:/usr/lib/x86_64-linux-gnu/dri/radeonsi_dri.so
   obj:/usr/lib/x86_64-linux-gnu/dri/radeonsi_dri.so
}
{
   <insert_a_suppression_name_here>
   Memcheck:Leak
   match-leak-kinds: reachable
   fun:malloc
   obj:/usr/lib/x86_64-linux-gnu/libLLVM-9.so.1
   fun:_ZN4llvm12PassRegistry12registerPassERKNS_8PassInfoEb
   obj:/usr/lib/x86_64-linux-gnu/libLLVM-9.so.1
   fun:__pthread_once_slow
   fun:_ZN4llvm30initializeSIInsertWaitcntsPassERNS_12PassRegistryE
   fun:LLVMInitializeAMDGPUTarget
   obj:/usr/lib/x86_64-linux-gnu/dri/radeonsi_dri.so
   fun:__pthread_once_slow
   obj:/usr/lib/x86_64-linux-gnu/dri/radeonsi_dri.so
   obj:/usr/lib/x86_64-linux-gnu/dri/radeonsi_dri.so
   obj:/usr/lib/x86_64-linux-gnu/dri/radeonsi_dri.so
}
{
   <insert_a_suppression_name_here>
   Memcheck:Leak
   match-leak-kinds: reachable
   fun:malloc
   obj:/usr/lib/x86_64-linux-gnu/libLLVM-9.so.1
   fun:_ZN4llvm12PassRegistry12registerPassERKNS_8PassInfoEb
   obj:/usr/lib/x86_64-linux-gnu/libLLVM-9.so.1
   fun:__pthread_once_slow
   fun:_ZN4llvm36initializeAMDGPUSimplifyLibCallsPassERNS_12PassRegistryE
   fun:LLVMInitializeAMDGPUTarget
   obj:/usr/lib/x86_64-linux-gnu/dri/radeonsi_dri.so
   fun:__pthread_once_slow
   obj:/usr/lib/x86_64-linux-gnu/dri/radeonsi_dri.so
   obj:/usr/lib/x86_64-linux-gnu/dri/radeonsi_dri.so
   obj:/usr/lib/x86_64-linux-gnu/dri/radeonsi_dri.so
}
{
   <insert_a_suppression_name_here>
   Memcheck:Leak
   match-leak-kinds: reachable
   fun:malloc
   obj:/usr/lib/x86_64-linux-gnu/libLLVM-9.so.1
   fun:_ZN4llvm12PassRegistry12registerPassERKNS_8PassInfoEb
   obj:/usr/lib/x86_64-linux-gnu/libLLVM-9.so.1
   fun:__pthread_once_slow
   fun:_ZN4llvm35initializeLCSSAVerificationPassPassERNS_12PassRegistryE
   obj:/usr/lib/x86_64-linux-gnu/libLLVM-9.so.1
   fun:__pthread_once_slow
   fun:_ZN4llvm30initializeLCSSAWrapperPassPassERNS_12PassRegistryE
   fun:_ZN4llvm22initializeLoopPassPassERNS_12PassRegistryE
   obj:/usr/lib/x86_64-linux-gnu/libLLVM-9.so.1
   fun:__pthread_once_slow
}
{
   <insert_a_suppression_name_here>
   Memcheck:Leak
   match-leak-kinds: reachable
   fun:malloc
   obj:/usr/lib/x86_64-linux-gnu/libLLVM-9.so.1
   fun:_ZN4llvm12PassRegistry12registerPassERKNS_8PassInfoEb
   obj:/usr/lib/x86_64-linux-gnu/libLLVM-9.so.1
   fun:__pthread_once_slow
   fun:_ZN4llvm50initializeOptimizationRemarkEmitterWrapperPassPassERNS_12PassRegistryE
   obj:/usr/lib/x86_64-linux-gnu/libLLVM-9.so.1
   fun:__pthread_once_slow
   fun:LLVMAddInstructionCombiningPass
   obj:/usr/lib/x86_64-linux-gnu/dri/radeonsi_dri.so
   obj:/usr/lib/x86_64-linux-gnu/dri/radeonsi_dri.so
   obj:/usr/lib/x86_64-linux-gnu/dri/radeonsi_dri.so
}
{
   <insert_a_suppression_name_here>
   Memcheck:Leak
   match-leak-kinds: reachable
   fun:malloc
   obj:/usr/lib/x86_64-linux-gnu/libLLVM-9.so.1
   fun:_ZN4llvm12PassRegistry12registerPassERKNS_8PassInfoEb
   obj:/usr/lib/x86_64-linux-gnu/libLLVM-9.so.1
   fun:__pthread_once_slow
   fun:_ZN4llvm30initializeCFIInstrInserterPassERNS_12PassRegistryE
   fun:_ZN4llvm17initializeCodeGenERNS_12PassRegistryE
   fun:_ZN4llvm16TargetPassConfigC1ERNS_17LLVMTargetMachineERNS_6legacy15PassManagerBaseE
   fun:_ZN4llvm16GCNTargetMachine16createPassConfigERNS_6legacy15PassManagerBaseE
   fun:_ZN4llvm17LLVMTargetMachine19addPassesToEmitFileERNS_6legacy15PassManagerBaseERNS_17raw_pwrite_streamEPS4_NS_13TargetMachine15CodeGenFileTypeEbPNS_17MachineModuleInfoE
   obj:/usr/lib/x86_64-linux-gnu/dri/radeonsi_dri.so
   obj:/usr/lib/x86_64-linux-gnu/dri/radeonsi_dri.so
}
{
   <insert_a_suppression_name_here>
   Memcheck:Leak
   match-leak-kinds: reachable
   fun:malloc
   obj:/usr/lib/x86_64-linux-gnu/libLLVM-9.so.1
   fun:_ZN4llvm12PassRegistry12registerPassERKNS_8PassInfoEb
   obj:/usr/lib/x86_64-linux-gnu/libLLVM-9.so.1
   fun:__pthread_once_slow
   fun:_ZN4llvm26initializeGCModuleInfoPassERNS_12PassRegistryE
   fun:_ZN4llvm17initializeCodeGenERNS_12PassRegistryE
   fun:_ZN4llvm16TargetPassConfigC1ERNS_17LLVMTargetMachineERNS_6legacy15PassManagerBaseE
   fun:_ZN4llvm16GCNTargetMachine16createPassConfigERNS_6legacy15PassManagerBaseE
   fun:_ZN4llvm17LLVMTargetMachine19addPassesToEmitFileERNS_6legacy15PassManagerBaseERNS_17raw_pwrite_streamEPS4_NS_13TargetMachine15CodeGenFileTypeEbPNS_17MachineModuleInfoE
   obj:/usr/lib/x86_64-linux-gnu/dri/radeonsi_dri.so
   obj:/usr/lib/x86_64-linux-gnu/dri/radeonsi_dri.so
}
{
   <insert_a_suppression_name_here>
   Memcheck:Leak
   match-leak-kinds: reachable
   fun:malloc
   obj:/usr/lib/x86_64-linux-gnu/libLLVM-9.so.1
   fun:_ZN4llvm12PassRegistry12registerPassERKNS_8PassInfoEb
   obj:/usr/lib/x86_64-linux-gnu/libLLVM-9.so.1
   fun:__pthread_once_slow
   fun:_ZN4llvm31initializeInterleavedAccessPassERNS_12PassRegistryE
   fun:_ZN4llvm17initializeCodeGenERNS_12PassRegistryE
   fun:_ZN4llvm16TargetPassConfigC1ERNS_17LLVMTargetMachineERNS_6legacy15PassManagerBaseE
   fun:_ZN4llvm16GCNTargetMachine16createPassConfigERNS_6legacy15PassManagerBaseE
   fun:_ZN4llvm17LLVMTargetMachine19addPassesToEmitFileERNS_6legacy15PassManagerBaseERNS_17raw_pwrite_streamEPS4_NS_13TargetMachine15CodeGenFileTypeEbPNS_17MachineModuleInfoE
   obj:/usr/lib/x86_64-linux-gnu/dri/radeonsi_dri.so
   obj:/usr/lib/x86_64-linux-gnu/dri/radeonsi_dri.so
}
{
   <insert_a_suppression_name_here>
   Memcheck:Leak
   match-leak-kinds: reachable
   fun:malloc
   obj:/usr/lib/x86_64-linux-gnu/libLLVM-9.so.1
   fun:_ZN4llvm12PassRegistry12registerPassERKNS_8PassInfoEb
   obj:/usr/lib/x86_64-linux-gnu/libLLVM-9.so.1
   fun:__pthread_once_slow
   fun:_ZN4llvm31initializePatchableFunctionPassERNS_12PassRegistryE
   fun:_ZN4llvm17initializeCodeGenERNS_12PassRegistryE
   fun:_ZN4llvm16TargetPassConfigC1ERNS_17LLVMTargetMachineERNS_6legacy15PassManagerBaseE
   fun:_ZN4llvm16GCNTargetMachine16createPassConfigERNS_6legacy15PassManagerBaseE
   fun:_ZN4llvm17LLVMTargetMachine19addPassesToEmitFileERNS_6legacy15PassManagerBaseERNS_17raw_pwrite_streamEPS4_NS_13TargetMachine15CodeGenFileTypeEbPNS_17MachineModuleInfoE
   obj:/usr/lib/x86_64-linux-gnu/dri/radeonsi_dri.so
   obj:/usr/lib/x86_64-linux-gnu/dri/radeonsi_dri.so
}
{
   <insert_a_suppression_name_here>
   Memcheck:Leak
   match-leak-kinds: reachable
   fun:malloc
   obj:/usr/lib/x86_64-linux-gnu/libLLVM-9.so.1
   fun:_ZN4llvm12PassRegistry12registerPassERKNS_8PassInfoEb
   obj:/usr/lib/x86_64-linux-gnu/libLLVM-9.so.1
   fun:__pthread_once_slow
   fun:_ZN4llvm36initializePostRAHazardRecognizerPassERNS_12PassRegistryE
   fun:_ZN4llvm17initializeCodeGenERNS_12PassRegistryE
   fun:_ZN4llvm16TargetPassConfigC1ERNS_17LLVMTargetMachineERNS_6legacy15PassManagerBaseE
   fun:_ZN4llvm16GCNTargetMachine16createPassConfigERNS_6legacy15PassManagerBaseE
   fun:_ZN4llvm17LLVMTargetMachine19addPassesToEmitFileERNS_6legacy15PassManagerBaseERNS_17raw_pwrite_streamEPS4_NS_13TargetMachine15CodeGenFileTypeEbPNS_17MachineModuleInfoE
   obj:/usr/lib/x86_64-linux-gnu/dri/radeonsi_dri.so
   obj:/usr/lib/x86_64-linux-gnu/dri/radeonsi_dri.so
}
{
   <insert_a_suppression_name_here>
   Memcheck:Leak
   match-leak-kinds: reachable
   fun:malloc
   obj:/usr/lib/x86_64-linux-gnu/libLLVM-9.so.1
   fun:_ZN4llvm12PassRegistry12registerPassERKNS_8PassInfoEb
   obj:/usr/lib/x86_64-linux-gnu/libLLVM-9.so.1
   fun:__pthread_once_slow
   fun:_ZN4llvm42initializeMachineBranchProbabilityInfoPassERNS_12PassRegistryE
   obj:/usr/lib/x86_64-linux-gnu/libLLVM-9.so.1
   fun:__pthread_once_slow
   fun:_ZN4llvm39initializeMachineBlockFrequencyInfoPassERNS_12PassRegistryE
   obj:/usr/lib/x86_64-linux-gnu/libLLVM-9.so.1
   fun:__pthread_once_slow
   fun:_ZN4llvm27initializeRegBankSelectPassERNS_12PassRegistryE
}
{
   <insert_a_suppression_name_here>
   Memcheck:Leak
   match-leak-kinds: reachable
   fun:malloc
   obj:/usr/lib/x86_64-linux-gnu/libLLVM-9.so.1
   fun:_ZN4llvm12PassRegistry12registerPassERKNS_8PassInfoEb
   obj:/usr/lib/x86_64-linux-gnu/libLLVM-9.so.1
   fun:__pthread_once_slow
   fun:_ZN4llvm31initializeSIMemoryLegalizerPassERNS_12PassRegistryE
   fun:LLVMInitializeAMDGPUTarget
   obj:/usr/lib/x86_64-linux-gnu/dri/radeonsi_dri.so
   fun:__pthread_once_slow
   obj:/usr/lib/x86_64-linux-gnu/dri/radeonsi_dri.so
   obj:/usr/lib/x86_64-linux-gnu/dri/radeonsi_dri.so
   obj:/usr/lib/x86_64-linux-gnu/dri/radeonsi_dri.so
}
{
   <insert_a_suppression_name_here>
   Memcheck:Leak
   match-leak-kinds: reachable
   fun:malloc
   obj:/usr/lib/x86_64-linux-gnu/libLLVM-9.so.1
   fun:_ZN4llvm12PassRegistry12registerPassERKNS_8PassInfoEb
   obj:/usr/lib/x86_64-linux-gnu/libLLVM-9.so.1
   fun:__pthread_once_slow
   fun:_ZN4llvm28initializeGCNNSAReassignPassERNS_12PassRegistryE
   obj:/usr/lib/x86_64-linux-gnu/dri/radeonsi_dri.so
   fun:__pthread_once_slow
   obj:/usr/lib/x86_64-linux-gnu/dri/radeonsi_dri.so
   obj:/usr/lib/x86_64-linux-gnu/dri/radeonsi_dri.so
   obj:/usr/lib/x86_64-linux-gnu/dri/radeonsi_dri.so
   obj:/usr/lib/x86_64-linux-gnu/dri/radeonsi_dri.so
}
{
   <insert_a_suppression_name_here>
   Memcheck:Leak
   match-leak-kinds: reachable
   fun:malloc
   obj:/usr/lib/x86_64-linux-gnu/libLLVM-9.so.1
   fun:_ZN4llvm12PassRegistry12registerPassERKNS_8PassInfoEb
   obj:/usr/lib/x86_64-linux-gnu/libLLVM-9.so.1
   fun:__pthread_once_slow
   fun:_ZN4llvm40initializeDeadMachineInstructionElimPassERNS_12PassRegistryE
   fun:_ZN4llvm17initializeCodeGenERNS_12PassRegistryE
   fun:_ZN4llvm16TargetPassConfigC1ERNS_17LLVMTargetMachineERNS_6legacy15PassManagerBaseE
   fun:_ZN4llvm16GCNTargetMachine16createPassConfigERNS_6legacy15PassManagerBaseE
   fun:_ZN4llvm17LLVMTargetMachine19addPassesToEmitFileERNS_6legacy15PassManagerBaseERNS_17raw_pwrite_streamEPS4_NS_13TargetMachine15CodeGenFileTypeEbPNS_17MachineModuleInfoE
   obj:/usr/lib/x86_64-linux-gnu/dri/radeonsi_dri.so
   obj:/usr/lib/x86_64-linux-gnu/dri/radeonsi_dri.so
}
{
   <insert_a_suppression_name_here>
   Memcheck:Leak
   match-leak-kinds: reachable
   fun:malloc
   obj:/usr/lib/x86_64-linux-gnu/libLLVM-9.so.1
   fun:_ZN4llvm12PassRegistry12registerPassERKNS_8PassInfoEb
   obj:/usr/lib/x86_64-linux-gnu/libLLVM-9.so.1
   fun:__pthread_once_slow
   fun:_ZN4llvm36initializeFinalizeMachineBundlesPassERNS_12PassRegistryE
   fun:_ZN4llvm17initializeCodeGenERNS_12PassRegistryE
   fun:_ZN4llvm16TargetPassConfigC1ERNS_17LLVMTargetMachineERNS_6legacy15PassManagerBaseE
   fun:_ZN4llvm16GCNTargetMachine16createPassConfigERNS_6legacy15PassManagerBaseE
   fun:_ZN4llvm17LLVMTargetMachine19addPassesToEmitFileERNS_6legacy15PassManagerBaseERNS_17raw_pwrite_streamEPS4_NS_13TargetMachine15CodeGenFileTypeEbPNS_17MachineModuleInfoE
   obj:/usr/lib/x86_64-linux-gnu/dri/radeonsi_dri.so
   obj:/usr/lib/x86_64-linux-gnu/dri/radeonsi_dri.so
}
{
   <insert_a_suppression_name_here>
   Memcheck:Leak
   match-leak-kinds: reachable
   fun:malloc
   obj:/usr/lib/x86_64-linux-gnu/libLLVM-9.so.1
   fun:_ZN4llvm12PassRegistry12registerPassERKNS_8PassInfoEb
   obj:/usr/lib/x86_64-linux-gnu/libLLVM-9.so.1
   fun:__pthread_once_slow
   fun:_ZN4llvm38initializeMachineDominanceFrontierPassERNS_12PassRegistryE
   obj:/usr/lib/x86_64-linux-gnu/libLLVM-9.so.1
   fun:__pthread_once_slow
   fun:_ZN4llvm35initializeMachineRegionInfoPassPassERNS_12PassRegistryE
   fun:_ZN4llvm17initializeCodeGenERNS_12PassRegistryE
   fun:_ZN4llvm16TargetPassConfigC1ERNS_17LLVMTargetMachineERNS_6legacy15PassManagerBaseE
   fun:_ZN4llvm16GCNTargetMachine16createPassConfigERNS_6legacy15PassManagerBaseE
}
{
   <insert_a_suppression_name_here>
   Memcheck:Leak
   match-leak-kinds: reachable
   fun:malloc
   obj:/usr/lib/x86_64-linux-gnu/libLLVM-9.so.1
   fun:_ZN4llvm12PassRegistry12registerPassERKNS_8PassInfoEb
   obj:/usr/lib/x86_64-linux-gnu/libLLVM-9.so.1
   fun:__pthread_once_slow
   fun:_ZN4llvm35initializeMachineRegionInfoPassPassERNS_12PassRegistryE
   fun:_ZN4llvm17initializeCodeGenERNS_12PassRegistryE
   fun:_ZN4llvm16TargetPassConfigC1ERNS_17LLVMTargetMachineERNS_6legacy15PassManagerBaseE
   fun:_ZN4llvm16GCNTargetMachine16createPassConfigERNS_6legacy15PassManagerBaseE
   fun:_ZN4llvm17LLVMTargetMachine19addPassesToEmitFileERNS_6legacy15PassManagerBaseERNS_17raw_pwrite_streamEPS4_NS_13TargetMachine15CodeGenFileTypeEbPNS_17MachineModuleInfoE
   obj:/usr/lib/x86_64-linux-gnu/dri/radeonsi_dri.so
   obj:/usr/lib/x86_64-linux-gnu/dri/radeonsi_dri.so
}
{
   <insert_a_suppression_name_here>
   Memcheck:Leak
   match-leak-kinds: reachable
   fun:malloc
   obj:/usr/lib/x86_64-linux-gnu/libLLVM-9.so.1
   fun:_ZN4llvm12PassRegistry12registerPassERKNS_8PassInfoEb
   obj:/usr/lib/x86_64-linux-gnu/libLLVM-9.so.1
   fun:__pthread_once_slow
   fun:_ZN4llvm34initializePostRAMachineSinkingPassERNS_12PassRegistryE
   fun:_ZN4llvm17initializeCodeGenERNS_12PassRegistryE
   fun:_ZN4llvm16TargetPassConfigC1ERNS_17LLVMTargetMachineERNS_6legacy15PassManagerBaseE
   fun:_ZN4llvm16GCNTargetMachine16createPassConfigERNS_6legacy15PassManagerBaseE
   fun:_ZN4llvm17LLVMTargetMachine19addPassesToEmitFileERNS_6legacy15PassManagerBaseERNS_17raw_pwrite_streamEPS4_NS_13TargetMachine15CodeGenFileTypeEbPNS_17MachineModuleInfoE
   obj:/usr/lib/x86_64-linux-gnu/dri/radeonsi_dri.so
   obj:/usr/lib/x86_64-linux-gnu/dri/radeonsi_dri.so
}
{
   <insert_a_suppression_name_here>
   Memcheck:Leak
   match-leak-kinds: reachable
   fun:malloc
   obj:/usr/lib/x86_64-linux-gnu/libLLVM-9.so.1
   fun:_ZN4llvm12PassRegistry12registerPassERKNS_8PassInfoEb
   obj:/usr/lib/x86_64-linux-gnu/libLLVM-9.so.1
   fun:__pthread_once_slow
   fun:_ZN4llvm31initializeStackSlotColoringPassERNS_12PassRegistryE
   fun:_ZN4llvm17initializeCodeGenERNS_12PassRegistryE
   fun:_ZN4llvm16TargetPassConfigC1ERNS_17LLVMTargetMachineERNS_6legacy15PassManagerBaseE
   fun:_ZN4llvm16GCNTargetMachine16createPassConfigERNS_6legacy15PassManagerBaseE
   fun:_ZN4llvm17LLVMTargetMachine19addPassesToEmitFileERNS_6legacy15PassManagerBaseERNS_17raw_pwrite_streamEPS4_NS_13TargetMachine15CodeGenFileTypeEbPNS_17MachineModuleInfoE
   obj:/usr/lib/x86_64-linux-gnu/dri/radeonsi_dri.so
   obj:/usr/lib/x86_64-linux-gnu/dri/radeonsi_dri.so
}
{
   <insert_a_suppression_name_here>
   Memcheck:Leak
   match-leak-kinds: reachable
   fun:malloc
   fun:strdup
   fun:_dl_load_cache_lookup
   fun:_dl_map_object
   fun:dl_open_worker
   fun:_dl_catch_exception
   fun:_dl_open
   fun:dlopen_doit
   fun:_dl_catch_exception
   fun:_dl_catch_error
   fun:_dlerror_run
   fun:dlopen@@GLIBC_2.2.5
}
{
   <insert_a_suppression_name_here>
   Memcheck:Leak
   match-leak-kinds: reachable
   fun:_Znwm
   fun:_ZNSt7__cxx1112basic_stringIcSt11char_traitsIcESaIcEE9_M_assignERKS4_
   obj:/usr/lib/x86_64-linux-gnu/libLLVM-9.so.1
   obj:/usr/lib/x86_64-linux-gnu/libLLVM-9.so.1
   obj:/usr/lib/x86_64-linux-gnu/libLLVM-9.so.1
   fun:call_init.part.0
   fun:call_init
   fun:_dl_init
   fun:_dl_catch_exception
   fun:dl_open_worker
   fun:_dl_catch_exception
   fun:_dl_open
   fun:dlopen_doit
}
{
   <insert_a_suppression_name_here>
   Memcheck:Leak
   match-leak-kinds: reachable
   fun:malloc
   obj:/usr/lib/x86_64-linux-gnu/libLLVM-9.so.1
   fun:_ZN4llvm12PassRegistry12registerPassERKNS_8PassInfoEb
   obj:/usr/lib/x86_64-linux-gnu/libLLVM-9.so.1
   fun:__pthread_once_slow
   fun:_ZN4llvm31initializeSILowerSGPRSpillsPassERNS_12PassRegistryE
   fun:LLVMInitializeAMDGPUTarget
   obj:/usr/lib/x86_64-linux-gnu/dri/radeonsi_dri.so
   fun:__pthread_once_slow
   obj:/usr/lib/x86_64-linux-gnu/dri/radeonsi_dri.so
   obj:/usr/lib/x86_64-linux-gnu/dri/radeonsi_dri.so
   obj:/usr/lib/x86_64-linux-gnu/dri/radeonsi_dri.so
}
{
   <insert_a_suppression_name_here>
   Memcheck:Leak
   match-leak-kinds: reachable
   fun:malloc
   obj:/usr/lib/x86_64-linux-gnu/libLLVM-9.so.1
   fun:_ZN4llvm12PassRegistry12registerPassERKNS_8PassInfoEb
   obj:/usr/lib/x86_64-linux-gnu/libLLVM-9.so.1
   fun:__pthread_once_slow
   fun:_ZN4llvm31initializeSIFixupVectorISelPassERNS_12PassRegistryE
   fun:LLVMInitializeAMDGPUTarget
   obj:/usr/lib/x86_64-linux-gnu/dri/radeonsi_dri.so
   fun:__pthread_once_slow
   obj:/usr/lib/x86_64-linux-gnu/dri/radeonsi_dri.so
   obj:/usr/lib/x86_64-linux-gnu/dri/radeonsi_dri.so
   obj:/usr/lib/x86_64-linux-gnu/dri/radeonsi_dri.so
}
{
   <insert_a_suppression_name_here>
   Memcheck:Leak
   match-leak-kinds: reachable
   fun:malloc
   obj:/usr/lib/x86_64-linux-gnu/libLLVM-9.so.1
   fun:_ZN4llvm12PassRegistry12registerPassERKNS_8PassInfoEb
   obj:/usr/lib/x86_64-linux-gnu/libLLVM-9.so.1
   fun:__pthread_once_slow
   fun:_ZN4llvm32initializeAMDGPUAlwaysInlinePassERNS_12PassRegistryE
   fun:LLVMInitializeAMDGPUTarget
   obj:/usr/lib/x86_64-linux-gnu/dri/radeonsi_dri.so
   fun:__pthread_once_slow
   obj:/usr/lib/x86_64-linux-gnu/dri/radeonsi_dri.so
   obj:/usr/lib/x86_64-linux-gnu/dri/radeonsi_dri.so
   obj:/usr/lib/x86_64-linux-gnu/dri/radeonsi_dri.so
}
{
   <insert_a_suppression_name_here>
   Memcheck:Leak
   match-leak-kinds: reachable
   fun:malloc
   obj:/usr/lib/x86_64-linux-gnu/libLLVM-9.so.1
   fun:_ZN4llvm12PassRegistry12registerPassERKNS_8PassInfoEb
   obj:/usr/lib/x86_64-linux-gnu/libLLVM-9.so.1
   fun:__pthread_once_slow
   fun:_ZN4llvm43initializeProfileSummaryInfoWrapperPassPassERNS_12PassRegistryE
   obj:/usr/lib/x86_64-linux-gnu/libLLVM-9.so.1
   fun:__pthread_once_slow
   fun:_ZN4llvm27initializeAMDGPUInlinerPassERNS_12PassRegistryE
   fun:LLVMInitializeAMDGPUTarget
   obj:/usr/lib/x86_64-linux-gnu/dri/radeonsi_dri.so
   fun:__pthread_once_slow
}
{
   <insert_a_suppression_name_here>
   Memcheck:Leak
   match-leak-kinds: reachable
   fun:malloc
   obj:/usr/lib/x86_64-linux-gnu/libLLVM-9.so.1
   fun:_ZN4llvm12PassRegistry12registerPassERKNS_8PassInfoEb
   obj:/usr/lib/x86_64-linux-gnu/libLLVM-9.so.1
   fun:__pthread_once_slow
   fun:_ZN4llvm32initializeImplicitNullChecksPassERNS_12PassRegistryE
   fun:_ZN4llvm17initializeCodeGenERNS_12PassRegistryE
   fun:_ZN4llvm16TargetPassConfigC1ERNS_17LLVMTargetMachineERNS_6legacy15PassManagerBaseE
   fun:_ZN4llvm16GCNTargetMachine16createPassConfigERNS_6legacy15PassManagerBaseE
   fun:_ZN4llvm17LLVMTargetMachine19addPassesToEmitFileERNS_6legacy15PassManagerBaseERNS_17raw_pwrite_streamEPS4_NS_13TargetMachine15CodeGenFileTypeEbPNS_17MachineModuleInfoE
   obj:/usr/lib/x86_64-linux-gnu/dri/radeonsi_dri.so
   obj:/usr/lib/x86_64-linux-gnu/dri/radeonsi_dri.so
}
{
   <insert_a_suppression_name_here>
   Memcheck:Leak
   match-leak-kinds: reachable
   fun:malloc
   obj:/usr/lib/x86_64-linux-gnu/libLLVM-9.so.1
   fun:_ZN4llvm12PassRegistry12registerPassERKNS_8PassInfoEb
   obj:/usr/lib/x86_64-linux-gnu/libLLVM-9.so.1
   fun:__pthread_once_slow
   fun:_ZN4llvm40initializeMachineFunctionPrinterPassPassERNS_12PassRegistryE
   fun:_ZN4llvm17initializeCodeGenERNS_12PassRegistryE
   fun:_ZN4llvm16TargetPassConfigC1ERNS_17LLVMTargetMachineERNS_6legacy15PassManagerBaseE
   fun:_ZN4llvm16GCNTargetMachine16createPassConfigERNS_6legacy15PassManagerBaseE
   fun:_ZN4llvm17LLVMTargetMachine19addPassesToEmitFileERNS_6legacy15PassManagerBaseERNS_17raw_pwrite_streamEPS4_NS_13TargetMachine15CodeGenFileTypeEbPNS_17MachineModuleInfoE
   obj:/usr/lib/x86_64-linux-gnu/dri/radeonsi_dri.so
   obj:/usr/lib/x86_64-linux-gnu/dri/radeonsi_dri.so
}
{
   <insert_a_suppression_name_here>
   Memcheck:Leak
   match-leak-kinds: reachable
   fun:malloc
   obj:/usr/lib/x86_64-linux-gnu/libLLVM-9.so.1
   fun:_ZN4llvm12PassRegistry12registerPassERKNS_8PassInfoEb
   obj:/usr/lib/x86_64-linux-gnu/libLLVM-9.so.1
   fun:__pthread_once_slow
   fun:_ZN4llvm28initializePHIEliminationPassERNS_12PassRegistryE
   fun:_ZN4llvm17initializeCodeGenERNS_12PassRegistryE
   fun:_ZN4llvm16TargetPassConfigC1ERNS_17LLVMTargetMachineERNS_6legacy15PassManagerBaseE
   fun:_ZN4llvm16GCNTargetMachine16createPassConfigERNS_6legacy15PassManagerBaseE
   fun:_ZN4llvm17LLVMTargetMachine19addPassesToEmitFileERNS_6legacy15PassManagerBaseERNS_17raw_pwrite_streamEPS4_NS_13TargetMachine15CodeGenFileTypeEbPNS_17MachineModuleInfoE
   obj:/usr/lib/x86_64-linux-gnu/dri/radeonsi_dri.so
   obj:/usr/lib/x86_64-linux-gnu/dri/radeonsi_dri.so
}
{
   <insert_a_suppression_name_here>
   Memcheck:Leak
   match-leak-kinds: reachable
   fun:malloc
   obj:/usr/lib/x86_64-linux-gnu/libLLVM-9.so.1
   fun:_ZN4llvm12PassRegistry12registerPassERKNS_8PassInfoEb
   obj:/usr/lib/x86_64-linux-gnu/libLLVM-9.so.1
   fun:__pthread_once_slow
   fun:_ZN4llvm28initializeSpillPlacementPassERNS_12PassRegistryE
   obj:/usr/lib/x86_64-linux-gnu/libLLVM-9.so.1
   fun:__pthread_once_slow
   fun:_ZN4llvm22initializeRAGreedyPassERNS_12PassRegistryE
   fun:_ZN4llvm17initializeCodeGenERNS_12PassRegistryE
   fun:_ZN4llvm16TargetPassConfigC1ERNS_17LLVMTargetMachineERNS_6legacy15PassManagerBaseE
   fun:_ZN4llvm16GCNTargetMachine16createPassConfigERNS_6legacy15PassManagerBaseE
}
{
   <insert_a_suppression_name_here>
   Memcheck:Leak
   match-leak-kinds: reachable
   fun:malloc
   obj:/usr/lib/x86_64-linux-gnu/libLLVM-9.so.1
   fun:_ZN4llvm12PassRegistry12registerPassERKNS_8PassInfoEb
   obj:/usr/lib/x86_64-linux-gnu/libLLVM-9.so.1
   fun:__pthread_once_slow
   fun:_ZN4llvm44initializeUnreachableBlockElimLegacyPassPassERNS_12PassRegistryE
   fun:_ZN4llvm17initializeCodeGenERNS_12PassRegistryE
   fun:_ZN4llvm16TargetPassConfigC1ERNS_17LLVMTargetMachineERNS_6legacy15PassManagerBaseE
   fun:_ZN4llvm16GCNTargetMachine16createPassConfigERNS_6legacy15PassManagerBaseE
   fun:_ZN4llvm17LLVMTargetMachine19addPassesToEmitFileERNS_6legacy15PassManagerBaseERNS_17raw_pwrite_streamEPS4_NS_13TargetMachine15CodeGenFileTypeEbPNS_17MachineModuleInfoE
   obj:/usr/lib/x86_64-linux-gnu/dri/radeonsi_dri.so
   obj:/usr/lib/x86_64-linux-gnu/dri/radeonsi_dri.so
}
{
   <insert_a_suppression_name_here>
   Memcheck:Leak
   match-leak-kinds: reachable
   fun:malloc
   obj:/usr/lib/x86_64-linux-gnu/libLLVM-9.so.1
   fun:_ZN4llvm12PassRegistry12registerPassERKNS_8PassInfoEb
   obj:/usr/lib/x86_64-linux-gnu/libLLVM-9.so.1
   fun:__pthread_once_slow
   fun:_ZN4llvm33initializeXRayInstrumentationPassERNS_12PassRegistryE
   fun:_ZN4llvm16TargetPassConfigC1ERNS_17LLVMTargetMachineERNS_6legacy15PassManagerBaseE
   fun:_ZN4llvm16GCNTargetMachine16createPassConfigERNS_6legacy15PassManagerBaseE
   fun:_ZN4llvm17LLVMTargetMachine19addPassesToEmitFileERNS_6legacy15PassManagerBaseERNS_17raw_pwrite_streamEPS4_NS_13TargetMachine15CodeGenFileTypeEbPNS_17MachineModuleInfoE
   obj:/usr/lib/x86_64-linux-gnu/dri/radeonsi_dri.so
   obj:/usr/lib/x86_64-linux-gnu/dri/radeonsi_dri.so
   obj:/usr/lib/x86_64-linux-gnu/dri/radeonsi_dri.so
}
{
   <insert_a_suppression_name_here>
   Memcheck:Leak
   match-leak-kinds: reachable
   fun:malloc
   obj:/usr/lib/x86_64-linux-gnu/libLLVM-9.so.1
   fun:_ZN4llvm12PassRegistry12registerPassERKNS_8PassInfoEb
   obj:/usr/lib/x86_64-linux-gnu/libLLVM-9.so.1
   fun:__pthread_once_slow
   fun:_ZN4llvm33initializeAMDGPUPromoteAllocaPassERNS_12PassRegistryE
   fun:LLVMInitializeAMDGPUTarget
   obj:/usr/lib/x86_64-linux-gnu/dri/radeonsi_dri.so
   fun:__pthread_once_slow
   obj:/usr/lib/x86_64-linux-gnu/dri/radeonsi_dri.so
   obj:/usr/lib/x86_64-linux-gnu/dri/radeonsi_dri.so
   obj:/usr/lib/x86_64-linux-gnu/dri/radeonsi_dri.so
}
{
   <insert_a_suppression_name_here>
   Memcheck:Leak
   match-leak-kinds: reachable
   fun:malloc
   obj:/usr/lib/x86_64-linux-gnu/libLLVM-9.so.1
   fun:_ZN4llvm12PassRegistry12registerPassERKNS_8PassInfoEb
   obj:/usr/lib/x86_64-linux-gnu/libLLVM-9.so.1
   fun:__pthread_once_slow
   fun:_ZN4llvm34initializeAMDGPUCodeGenPreparePassERNS_12PassRegistryE
   fun:LLVMInitializeAMDGPUTarget
   obj:/usr/lib/x86_64-linux-gnu/dri/radeonsi_dri.so
   fun:__pthread_once_slow
   obj:/usr/lib/x86_64-linux-gnu/dri/radeonsi_dri.so
   obj:/usr/lib/x86_64-linux-gnu/dri/radeonsi_dri.so
   obj:/usr/lib/x86_64-linux-gnu/dri/radeonsi_dri.so
}
{
   <insert_a_suppression_name_here>
   Memcheck:Leak
   match-leak-kinds: reachable
   fun:malloc
   obj:/usr/lib/x86_64-linux-gnu/libLLVM-9.so.1
   fun:_ZN4llvm12PassRegistry12registerPassERKNS_8PassInfoEb
   obj:/usr/lib/x86_64-linux-gnu/libLLVM-9.so.1
   fun:__pthread_once_slow
   fun:_ZN4llvm33initializeAMDGPUUnifyMetadataPassERNS_12PassRegistryE
   fun:LLVMInitializeAMDGPUTarget
   obj:/usr/lib/x86_64-linux-gnu/dri/radeonsi_dri.so
   fun:__pthread_once_slow
   obj:/usr/lib/x86_64-linux-gnu/dri/radeonsi_dri.so
   obj:/usr/lib/x86_64-linux-gnu/dri/radeonsi_dri.so
   obj:/usr/lib/x86_64-linux-gnu/dri/radeonsi_dri.so
}
{
   <insert_a_suppression_name_here>
   Memcheck:Leak
   match-leak-kinds: reachable
   fun:malloc
   obj:/usr/lib/x86_64-linux-gnu/libLLVM-9.so.1
   fun:_ZN4llvm12PassRegistry12registerPassERKNS_8PassInfoEb
   obj:/usr/lib/x86_64-linux-gnu/libLLVM-9.so.1
   fun:__pthread_once_slow
   fun:_ZN4llvm32initializeSILowerControlFlowPassERNS_12PassRegistryE
   fun:LLVMInitializeAMDGPUTarget
   obj:/usr/lib/x86_64-linux-gnu/dri/radeonsi_dri.so
   fun:__pthread_once_slow
   obj:/usr/lib/x86_64-linux-gnu/dri/radeonsi_dri.so
   obj:/usr/lib/x86_64-linux-gnu/dri/radeonsi_dri.so
   obj:/usr/lib/x86_64-linux-gnu/dri/radeonsi_dri.so
}
{
   <insert_a_suppression_name_here>
   Memcheck:Leak
   match-leak-kinds: reachable
   fun:malloc
   obj:/usr/lib/x86_64-linux-gnu/libLLVM-9.so.1
   fun:_ZN4llvm12PassRegistry12registerPassERKNS_8PassInfoEb
   obj:/usr/lib/x86_64-linux-gnu/libLLVM-9.so.1
   fun:__pthread_once_slow
   fun:_ZN4llvm33initializeMachineTraceMetricsPassERNS_12PassRegistryE
   obj:/usr/lib/x86_64-linux-gnu/libLLVM-9.so.1
   fun:__pthread_once_slow
   fun:_ZN4llvm30initializeEarlyIfConverterPassERNS_12PassRegistryE
   fun:_ZN4llvm17initializeCodeGenERNS_12PassRegistryE
   fun:_ZN4llvm16TargetPassConfigC1ERNS_17LLVMTargetMachineERNS_6legacy15PassManagerBaseE
   fun:_ZN4llvm16GCNTargetMachine16createPassConfigERNS_6legacy15PassManagerBaseE
}
{
   <insert_a_suppression_name_here>
   Memcheck:Leak
   match-leak-kinds: reachable
   fun:malloc
   obj:/usr/lib/x86_64-linux-gnu/libLLVM-9.so.1
   fun:_ZN4llvm12PassRegistry12registerPassERKNS_8PassInfoEb
   obj:/usr/lib/x86_64-linux-gnu/libLLVM-9.so.1
   fun:__pthread_once_slow
   fun:_ZN4llvm32initializeEarlyTailDuplicatePassERNS_12PassRegistryE
   fun:_ZN4llvm17initializeCodeGenERNS_12PassRegistryE
   fun:_ZN4llvm16TargetPassConfigC1ERNS_17LLVMTargetMachineERNS_6legacy15PassManagerBaseE
   fun:_ZN4llvm16GCNTargetMachine16createPassConfigERNS_6legacy15PassManagerBaseE
   fun:_ZN4llvm17LLVMTargetMachine19addPassesToEmitFileERNS_6legacy15PassManagerBaseERNS_17raw_pwrite_streamEPS4_NS_13TargetMachine15CodeGenFileTypeEbPNS_17MachineModuleInfoE
   obj:/usr/lib/x86_64-linux-gnu/dri/radeonsi_dri.so
   obj:/usr/lib/x86_64-linux-gnu/dri/radeonsi_dri.so
}
{
   <insert_a_suppression_name_here>
   Memcheck:Leak
   match-leak-kinds: reachable
   fun:malloc
   obj:/usr/lib/x86_64-linux-gnu/libLLVM-9.so.1
   fun:_ZN4llvm12PassRegistry12registerPassERKNS_8PassInfoEb
   obj:/usr/lib/x86_64-linux-gnu/libLLVM-9.so.1
   fun:__pthread_once_slow
   fun:_ZN4llvm40initializeMachineBlockPlacementStatsPassERNS_12PassRegistryE
   fun:_ZN4llvm17initializeCodeGenERNS_12PassRegistryE
   fun:_ZN4llvm16TargetPassConfigC1ERNS_17LLVMTargetMachineERNS_6legacy15PassManagerBaseE
   fun:_ZN4llvm16GCNTargetMachine16createPassConfigERNS_6legacy15PassManagerBaseE
   fun:_ZN4llvm17LLVMTargetMachine19addPassesToEmitFileERNS_6legacy15PassManagerBaseERNS_17raw_pwrite_streamEPS4_NS_13TargetMachine15CodeGenFileTypeEbPNS_17MachineModuleInfoE
   obj:/usr/lib/x86_64-linux-gnu/dri/radeonsi_dri.so
   obj:/usr/lib/x86_64-linux-gnu/dri/radeonsi_dri.so
}
{
   <insert_a_suppression_name_here>
   Memcheck:Leak
   match-leak-kinds: reachable
   fun:malloc
   obj:/usr/lib/x86_64-linux-gnu/libLLVM-9.so.1
   fun:_ZN4llvm12PassRegistry12registerPassERKNS_8PassInfoEb
   obj:/usr/lib/x86_64-linux-gnu/libLLVM-9.so.1
   fun:__pthread_once_slow
   fun:_ZN4llvm35initializeRegUsageInfoCollectorPassERNS_12PassRegistryE
   fun:_ZN4llvm17initializeCodeGenERNS_12PassRegistryE
   fun:_ZN4llvm16TargetPassConfigC1ERNS_17LLVMTargetMachineERNS_6legacy15PassManagerBaseE
   fun:_ZN4llvm16GCNTargetMachine16createPassConfigERNS_6legacy15PassManagerBaseE
   fun:_ZN4llvm17LLVMTargetMachine19addPassesToEmitFileERNS_6legacy15PassManagerBaseERNS_17raw_pwrite_streamEPS4_NS_13TargetMachine15CodeGenFileTypeEbPNS_17MachineModuleInfoE
   obj:/usr/lib/x86_64-linux-gnu/dri/radeonsi_dri.so
   obj:/usr/lib/x86_64-linux-gnu/dri/radeonsi_dri.so
}
{
   <insert_a_suppression_name_here>
   Memcheck:Leak
   match-leak-kinds: reachable
   fun:malloc
   obj:/usr/lib/x86_64-linux-gnu/libLLVM-9.so.1
   fun:_ZN4llvm12PassRegistry12registerPassERKNS_8PassInfoEb
   obj:/usr/lib/x86_64-linux-gnu/libLLVM-9.so.1
   fun:__pthread_once_slow
   fun:_ZN4llvm37initializeRegUsageInfoPropagationPassERNS_12PassRegistryE
   fun:_ZN4llvm17initializeCodeGenERNS_12PassRegistryE
   fun:_ZN4llvm16TargetPassConfigC1ERNS_17LLVMTargetMachineERNS_6legacy15PassManagerBaseE
   fun:_ZN4llvm16GCNTargetMachine16createPassConfigERNS_6legacy15PassManagerBaseE
   fun:_ZN4llvm17LLVMTargetMachine19addPassesToEmitFileERNS_6legacy15PassManagerBaseERNS_17raw_pwrite_streamEPS4_NS_13TargetMachine15CodeGenFileTypeEbPNS_17MachineModuleInfoE
   obj:/usr/lib/x86_64-linux-gnu/dri/radeonsi_dri.so
   obj:/usr/lib/x86_64-linux-gnu/dri/radeonsi_dri.so
}
{
   <insert_a_suppression_name_here>
   Memcheck:Leak
   match-leak-kinds: reachable
   fun:malloc
   obj:/usr/lib/x86_64-linux-gnu/libLLVM-9.so.1
   fun:_ZN4llvm12PassRegistry12registerPassERKNS_8PassInfoEb
   obj:/usr/lib/x86_64-linux-gnu/libLLVM-9.so.1
   fun:__pthread_once_slow
   fun:_ZN4llvm39initializeTwoAddressInstructionPassPassERNS_12PassRegistryE
   fun:_ZN4llvm17initializeCodeGenERNS_12PassRegistryE
   fun:_ZN4llvm16TargetPassConfigC1ERNS_17LLVMTargetMachineERNS_6legacy15PassManagerBaseE
   fun:_ZN4llvm16GCNTargetMachine16createPassConfigERNS_6legacy15PassManagerBaseE
   fun:_ZN4llvm17LLVMTargetMachine19addPassesToEmitFileERNS_6legacy15PassManagerBaseERNS_17raw_pwrite_streamEPS4_NS_13TargetMachine15CodeGenFileTypeEbPNS_17MachineModuleInfoE
   obj:/usr/lib/x86_64-linux-gnu/dri/radeonsi_dri.so
   obj:/usr/lib/x86_64-linux-gnu/dri/radeonsi_dri.so
}
{
   <insert_a_suppression_name_here>
   Memcheck:Leak
   match-leak-kinds: reachable
   fun:malloc
   obj:/usr/lib/x86_64-linux-gnu/libLLVM-9.so.1
   fun:_ZN4llvm12PassRegistry12registerPassERKNS_8PassInfoEb
   obj:/usr/lib/x86_64-linux-gnu/libLLVM-9.so.1
   fun:__pthread_once_slow
   fun:_ZN4llvm29createLoadStoreVectorizerPassEv
   obj:/usr/lib/x86_64-linux-gnu/libLLVM-9.so.1
   fun:_ZN4llvm16TargetPassConfig13addISelPassesEv
   fun:_ZN4llvm17LLVMTargetMachine19addPassesToEmitFileERNS_6legacy15PassManagerBaseERNS_17raw_pwrite_streamEPS4_NS_13TargetMachine15CodeGenFileTypeEbPNS_17MachineModuleInfoE
   obj:/usr/lib/x86_64-linux-gnu/dri/radeonsi_dri.so
   obj:/usr/lib/x86_64-linux-gnu/dri/radeonsi_dri.so
   obj:/usr/lib/x86_64-linux-gnu/dri/radeonsi_dri.so
}
{
   <insert_a_suppression_name_here>
   Memcheck:Leak
   match-leak-kinds: reachable
   fun:malloc
   obj:/usr/lib/x86_64-linux-gnu/libLLVM-9.so.1
   fun:_ZN4llvm12PassRegistry12registerPassERKNS_8PassInfoEb
   obj:/usr/lib/x86_64-linux-gnu/libLLVM-9.so.1
   fun:__pthread_once_slow
   fun:_ZN4llvm34initializeSIShrinkInstructionsPassERNS_12PassRegistryE
   fun:LLVMInitializeAMDGPUTarget
   obj:/usr/lib/x86_64-linux-gnu/dri/radeonsi_dri.so
   fun:__pthread_once_slow
   obj:/usr/lib/x86_64-linux-gnu/dri/radeonsi_dri.so
   obj:/usr/lib/x86_64-linux-gnu/dri/radeonsi_dri.so
   obj:/usr/lib/x86_64-linux-gnu/dri/radeonsi_dri.so
}
{
   <insert_a_suppression_name_here>
   Memcheck:Leak
   match-leak-kinds: reachable
   fun:malloc
   obj:/usr/lib/x86_64-linux-gnu/libLLVM-9.so.1
   fun:_ZN4llvm12PassRegistry12registerPassERKNS_8PassInfoEb
   obj:/usr/lib/x86_64-linux-gnu/libLLVM-9.so.1
   fun:__pthread_once_slow
   fun:_ZN4llvm33initializeSIFormMemoryClausesPassERNS_12PassRegistryE
   fun:LLVMInitializeAMDGPUTarget
   obj:/usr/lib/x86_64-linux-gnu/dri/radeonsi_dri.so
   fun:__pthread_once_slow
   obj:/usr/lib/x86_64-linux-gnu/dri/radeonsi_dri.so
   obj:/usr/lib/x86_64-linux-gnu/dri/radeonsi_dri.so
   obj:/usr/lib/x86_64-linux-gnu/dri/radeonsi_dri.so
}
{
   <insert_a_suppression_name_here>
   Memcheck:Leak
   match-leak-kinds: reachable
   fun:malloc
   fun:XInitThreads
   obj:/usr/lib/x86_64-linux-gnu/libSDL2-2.0.so.0.10.0
   obj:/usr/lib/x86_64-linux-gnu/libSDL2-2.0.so.0.10.0
   obj:/usr/lib/x86_64-linux-gnu/libSDL2-2.0.so.0.10.0
   fun:_ZN9SDLWindowC1Eii
   fun:main
}
{
   <insert_a_suppression_name_here>
   Memcheck:Leak
   match-leak-kinds: reachable
   fun:malloc
   fun:_XlcCreateLocaleDataBase
   obj:/usr/lib/x86_64-linux-gnu/libX11.so.6.3.0
   obj:/usr/lib/x86_64-linux-gnu/libX11.so.6.3.0
   fun:_XlcCreateLC
   fun:_XlcDefaultLoader
   fun:_XOpenLC
   fun:_XlcCurrentLC
   fun:XSetLocaleModifiers
   obj:/usr/lib/x86_64-linux-gnu/libSDL2-2.0.so.0.10.0
   obj:/usr/lib/x86_64-linux-gnu/libSDL2-2.0.so.0.10.0
   obj:/usr/lib/x86_64-linux-gnu/libSDL2-2.0.so.0.10.0
}
{
   <insert_a_suppression_name_here>
   Memcheck:Leak
   match-leak-kinds: reachable
   fun:malloc
   fun:_ZN4llvm3sys9MutexImplC1Eb
   obj:/usr/lib/x86_64-linux-gnu/libLLVM-9.so.1
   fun:__pthread_once_slow
   fun:_ZNK4llvm17ManagedStaticBase21RegisterManagedStaticEPFPvvEPFvS1_E
   fun:_ZN4llvm2cl14OptionCategory16registerCategoryEv
   obj:/usr/lib/x86_64-linux-gnu/libLLVM-9.so.1
   fun:call_init.part.0
   fun:call_init
   fun:_dl_init
   fun:_dl_catch_exception
   fun:dl_open_worker
   fun:_dl_catch_exception
}
{
   <insert_a_suppression_name_here>
   Memcheck:Leak
   match-leak-kinds: reachable
   fun:malloc
   obj:/usr/lib/x86_64-linux-gnu/libLLVM-9.so.1
   fun:_ZN4llvm12PassRegistry12registerPassERKNS_8PassInfoEb
   obj:/usr/lib/x86_64-linux-gnu/libLLVM-9.so.1
   fun:__pthread_once_slow
   fun:_ZN4llvm41initializeAMDGPUAnnotateUniformValuesPassERNS_12PassRegistryE
   fun:LLVMInitializeAMDGPUTarget
   obj:/usr/lib/x86_64-linux-gnu/dri/radeonsi_dri.so
   fun:__pthread_once_slow
   obj:/usr/lib/x86_64-linux-gnu/dri/radeonsi_dri.so
   obj:/usr/lib/x86_64-linux-gnu/dri/radeonsi_dri.so
   obj:/usr/lib/x86_64-linux-gnu/dri/radeonsi_dri.so
}
{
   <insert_a_suppression_name_here>
   Memcheck:Leak
   match-leak-kinds: reachable
   fun:malloc
   obj:/usr/lib/x86_64-linux-gnu/libLLVM-9.so.1
   fun:_ZN4llvm12PassRegistry12registerPassERKNS_8PassInfoEb
   obj:/usr/lib/x86_64-linux-gnu/libLLVM-9.so.1
   fun:__pthread_once_slow
   fun:_ZN4llvm35initializeAMDGPUAtomicOptimizerPassERNS_12PassRegistryE
   fun:LLVMInitializeAMDGPUTarget
   obj:/usr/lib/x86_64-linux-gnu/dri/radeonsi_dri.so
   fun:__pthread_once_slow
   obj:/usr/lib/x86_64-linux-gnu/dri/radeonsi_dri.so
   obj:/usr/lib/x86_64-linux-gnu/dri/radeonsi_dri.so
   obj:/usr/lib/x86_64-linux-gnu/dri/radeonsi_dri.so
}
{
   <insert_a_suppression_name_here>
   Memcheck:Leak
   match-leak-kinds: reachable
   fun:malloc
   obj:/usr/lib/x86_64-linux-gnu/libLLVM-9.so.1
   fun:_ZN4llvm12PassRegistry12registerPassERKNS_8PassInfoEb
   obj:/usr/lib/x86_64-linux-gnu/libLLVM-9.so.1
   fun:__pthread_once_slow
   fun:_ZN4llvm35initializeAMDGPULowerIntrinsicsPassERNS_12PassRegistryE
   fun:LLVMInitializeAMDGPUTarget
   obj:/usr/lib/x86_64-linux-gnu/dri/radeonsi_dri.so
   fun:__pthread_once_slow
   obj:/usr/lib/x86_64-linux-gnu/dri/radeonsi_dri.so
   obj:/usr/lib/x86_64-linux-gnu/dri/radeonsi_dri.so
   obj:/usr/lib/x86_64-linux-gnu/dri/radeonsi_dri.so
}
{
   <insert_a_suppression_name_here>
   Memcheck:Leak
   match-leak-kinds: reachable
   fun:malloc
   obj:/usr/lib/x86_64-linux-gnu/libLLVM-9.so.1
   fun:_ZN4llvm12PassRegistry12registerPassERKNS_8PassInfoEb
   obj:/usr/lib/x86_64-linux-gnu/libLLVM-9.so.1
   fun:__pthread_once_slow
   fun:_ZN4llvm47initializeLazyMachineBlockFrequencyInfoPassPassERNS_12PassRegistryE
   obj:/usr/lib/x86_64-linux-gnu/libLLVM-9.so.1
   fun:__pthread_once_slow
   fun:_ZN4llvm50initializeMachineOptimizationRemarkEmitterPassPassERNS_12PassRegistryE
   fun:_ZN4llvm17initializeCodeGenERNS_12PassRegistryE
   fun:_ZN4llvm16TargetPassConfigC1ERNS_17LLVMTargetMachineERNS_6legacy15PassManagerBaseE
   fun:_ZN4llvm16GCNTargetMachine16createPassConfigERNS_6legacy15PassManagerBaseE
}
{
   <insert_a_suppression_name_here>
   Memcheck:Leak
   match-leak-kinds: reachable
   fun:malloc
   fun:_ZN4llvm3sys9MutexImplC1Eb
   obj:/usr/lib/x86_64-linux-gnu/libLLVM-9.so.1
   fun:_ZNK4llvm17ManagedStaticBase21RegisterManagedStaticEPFPvvEPFvS1_E
   fun:_ZN4llvm6SDNode16getValueTypeListENS_3EVTE
   fun:_ZN4llvm12SelectionDAG7getNodeEjRKNS_5SDLocENS_3EVTENS_7SDValueENS_11SDNodeFlagsE
   obj:/usr/lib/x86_64-linux-gnu/libLLVM-9.so.1
   obj:/usr/lib/x86_64-linux-gnu/libLLVM-9.so.1
   obj:/usr/lib/x86_64-linux-gnu/libLLVM-9.so.1
   fun:_ZN4llvm12SelectionDAG13LegalizeTypesEv
   fun:_ZN4llvm16SelectionDAGISel17CodeGenAndEmitDAGEv
   fun:_ZN4llvm16SelectionDAGISel20SelectAllBasicBlocksERKNS_8FunctionE
}
{
   <insert_a_suppression_name_here>
   Memcheck:Leak
   match-leak-kinds: reachable
   fun:malloc
   obj:/usr/lib/x86_64-linux-gnu/libLLVM-9.so.1
   fun:_ZN4llvm12PassRegistry12registerPassERKNS_8PassInfoEb
   obj:/usr/lib/x86_64-linux-gnu/libLLVM-9.so.1
   fun:__pthread_once_slow
   fun:_ZN4llvm36initializeAssumptionCacheTrackerPassERNS_12PassRegistryE
   obj:/usr/lib/x86_64-linux-gnu/libLLVM-9.so.1
   fun:__pthread_once_slow
   fun:_ZN4llvm32initializeBasicAAWrapperPassPassERNS_12PassRegistryE
   obj:/usr/lib/x86_64-linux-gnu/libLLVM-9.so.1
   fun:__pthread_once_slow
   fun:_ZN4llvm34initializeAAResultsWrapperPassPassERNS_12PassRegistryE
}
{
   <insert_a_suppression_name_here>
   Memcheck:Leak
   match-leak-kinds: reachable
   fun:malloc
   obj:/usr/lib/x86_64-linux-gnu/libLLVM-9.so.1
   fun:_ZN4llvm12PassRegistry12registerPassERKNS_8PassInfoEb
   obj:/usr/lib/x86_64-linux-gnu/libLLVM-9.so.1
   fun:__pthread_once_slow
   fun:_ZN4llvm35initializeSIAnnotateControlFlowPassERNS_12PassRegistryE
   fun:LLVMInitializeAMDGPUTarget
   obj:/usr/lib/x86_64-linux-gnu/dri/radeonsi_dri.so
   fun:__pthread_once_slow
   obj:/usr/lib/x86_64-linux-gnu/dri/radeonsi_dri.so
   obj:/usr/lib/x86_64-linux-gnu/dri/radeonsi_dri.so
   obj:/usr/lib/x86_64-linux-gnu/dri/radeonsi_dri.so
}
{
   <insert_a_suppression_name_here>
   Memcheck:Leak
   match-leak-kinds: reachable
   fun:malloc
   obj:/usr/lib/x86_64-linux-gnu/libLLVM-9.so.1
   fun:_ZN4llvm12PassRegistry12registerPassERKNS_8PassInfoEb
   obj:/usr/lib/x86_64-linux-gnu/libLLVM-9.so.1
   fun:__pthread_once_slow
   fun:_ZN4llvm35initializeSIOptimizeExecMaskingPassERNS_12PassRegistryE
   fun:LLVMInitializeAMDGPUTarget
   obj:/usr/lib/x86_64-linux-gnu/dri/radeonsi_dri.so
   fun:__pthread_once_slow
   obj:/usr/lib/x86_64-linux-gnu/dri/radeonsi_dri.so
   obj:/usr/lib/x86_64-linux-gnu/dri/radeonsi_dri.so
   obj:/usr/lib/x86_64-linux-gnu/dri/radeonsi_dri.so
}
{
   <insert_a_suppression_name_here>
   Memcheck:Leak
   match-leak-kinds: reachable
   fun:malloc
   obj:/usr/lib/x86_64-linux-gnu/libLLVM-9.so.1
   fun:_ZN4llvm12PassRegistry12registerPassERKNS_8PassInfoEb
   obj:/usr/lib/x86_64-linux-gnu/libLLVM-9.so.1
   fun:__pthread_once_slow
   fun:_ZN4llvm34initializeSIPreAllocateWWMRegsPassERNS_12PassRegistryE
   fun:LLVMInitializeAMDGPUTarget
   obj:/usr/lib/x86_64-linux-gnu/dri/radeonsi_dri.so
   fun:__pthread_once_slow
   obj:/usr/lib/x86_64-linux-gnu/dri/radeonsi_dri.so
   obj:/usr/lib/x86_64-linux-gnu/dri/radeonsi_dri.so
   obj:/usr/lib/x86_64-linux-gnu/dri/radeonsi_dri.so
}
{
   <insert_a_suppression_name_here>
   Memcheck:Leak
   match-leak-kinds: reachable
   fun:malloc
   obj:/usr/lib/x86_64-linux-gnu/libLLVM-9.so.1
   fun:_ZN4llvm12PassRegistry12registerPassERKNS_8PassInfoEb
   obj:/usr/lib/x86_64-linux-gnu/libLLVM-9.so.1
   fun:__pthread_once_slow
   fun:_ZN4llvm32initializeGCNRegBankReassignPassERNS_12PassRegistryE
   fun:LLVMInitializeAMDGPUTarget
   obj:/usr/lib/x86_64-linux-gnu/dri/radeonsi_dri.so
   fun:__pthread_once_slow
   obj:/usr/lib/x86_64-linux-gnu/dri/radeonsi_dri.so
   obj:/usr/lib/x86_64-linux-gnu/dri/radeonsi_dri.so
   obj:/usr/lib/x86_64-linux-gnu/dri/radeonsi_dri.so
}
{
   <insert_a_suppression_name_here>
   Memcheck:Leak
   match-leak-kinds: reachable
   fun:malloc
   obj:/usr/lib/x86_64-linux-gnu/libLLVM-9.so.1
   fun:_ZN4llvm12PassRegistry12registerPassERKNS_8PassInfoEb
   obj:/usr/lib/x86_64-linux-gnu/libLLVM-9.so.1
   fun:__pthread_once_slow
   fun:_ZN4llvm36initializeInterleavedLoadCombinePassERNS_12PassRegistryE
   fun:_ZN4llvm17initializeCodeGenERNS_12PassRegistryE
   fun:_ZN4llvm16TargetPassConfigC1ERNS_17LLVMTargetMachineERNS_6legacy15PassManagerBaseE
   fun:_ZN4llvm16GCNTargetMachine16createPassConfigERNS_6legacy15PassManagerBaseE
   fun:_ZN4llvm17LLVMTargetMachine19addPassesToEmitFileERNS_6legacy15PassManagerBaseERNS_17raw_pwrite_streamEPS4_NS_13TargetMachine15CodeGenFileTypeEbPNS_17MachineModuleInfoE
   obj:/usr/lib/x86_64-linux-gnu/dri/radeonsi_dri.so
   obj:/usr/lib/x86_64-linux-gnu/dri/radeonsi_dri.so
}
{
   <insert_a_suppression_name_here>
   Memcheck:Leak
   match-leak-kinds: reachable
   fun:malloc
   obj:/usr/lib/x86_64-linux-gnu/libLLVM-9.so.1
   fun:_ZN4llvm12PassRegistry12registerPassERKNS_8PassInfoEb
   obj:/usr/lib/x86_64-linux-gnu/libLLVM-9.so.1
   fun:__pthread_once_slow
   fun:_ZN4llvm31createShadowStackGCLoweringPassEv
   fun:_ZN4llvm16TargetPassConfig11addIRPassesEv
   obj:/usr/lib/x86_64-linux-gnu/libLLVM-9.so.1
   fun:_ZN4llvm16TargetPassConfig13addISelPassesEv
   fun:_ZN4llvm17LLVMTargetMachine19addPassesToEmitFileERNS_6legacy15PassManagerBaseERNS_17raw_pwrite_streamEPS4_NS_13TargetMachine15CodeGenFileTypeEbPNS_17MachineModuleInfoE
   obj:/usr/lib/x86_64-linux-gnu/dri/radeonsi_dri.so
   obj:/usr/lib/x86_64-linux-gnu/dri/radeonsi_dri.so
}
{
   <insert_a_suppression_name_here>
   Memcheck:Leak
   match-leak-kinds: reachable
   fun:malloc
   fun:_dbus_strdup
   obj:/lib/x86_64-linux-gnu/libdbus-1.so.3.19.11
   obj:/usr/lib/x86_64-linux-gnu/libSDL2-2.0.so.0.10.0
   obj:/usr/lib/x86_64-linux-gnu/libSDL2-2.0.so.0.10.0
   obj:/usr/lib/x86_64-linux-gnu/libSDL2-2.0.so.0.10.0
   obj:/usr/lib/x86_64-linux-gnu/libSDL2-2.0.so.0.10.0
   obj:/usr/lib/x86_64-linux-gnu/libSDL2-2.0.so.0.10.0
   obj:/usr/lib/x86_64-linux-gnu/libSDL2-2.0.so.0.10.0
   obj:/usr/lib/x86_64-linux-gnu/libSDL2-2.0.so.0.10.0
   obj:/usr/lib/x86_64-linux-gnu/libSDL2-2.0.so.0.10.0
   fun:_ZN9SDLWindowC1Eii
}
{
   <insert_a_suppression_name_here>
   Memcheck:Leak
   match-leak-kinds: reachable
   fun:malloc
   obj:/usr/lib/x86_64-linux-gnu/libLLVM-9.so.1
   fun:_ZN4llvm12PassRegistry12registerPassERKNS_8PassInfoEb
   obj:/usr/lib/x86_64-linux-gnu/libLLVM-9.so.1
   fun:__pthread_once_slow
   fun:_ZN4llvm33createPartiallyInlineLibCallsPassEv
   fun:_ZN4llvm16TargetPassConfig11addIRPassesEv
   obj:/usr/lib/x86_64-linux-gnu/libLLVM-9.so.1
   fun:_ZN4llvm16TargetPassConfig13addISelPassesEv
   fun:_ZN4llvm17LLVMTargetMachine19addPassesToEmitFileERNS_6legacy15PassManagerBaseERNS_17raw_pwrite_streamEPS4_NS_13TargetMachine15CodeGenFileTypeEbPNS_17MachineModuleInfoE
   obj:/usr/lib/x86_64-linux-gnu/dri/radeonsi_dri.so
   obj:/usr/lib/x86_64-linux-gnu/dri/radeonsi_dri.so
}
{
   <insert_a_suppression_name_here>
   Memcheck:Leak
   match-leak-kinds: reachable
   fun:malloc
   obj:/usr/lib/x86_64-linux-gnu/libLLVM-9.so.1
   fun:_ZN4llvm12PassRegistry12registerPassERKNS_8PassInfoEb
   obj:/usr/lib/x86_64-linux-gnu/libLLVM-9.so.1
   fun:__pthread_once_slow
   fun:_ZN4llvm41createPostInlineEntryExitInstrumenterPassEv
   fun:_ZN4llvm16TargetPassConfig11addIRPassesEv
   obj:/usr/lib/x86_64-linux-gnu/libLLVM-9.so.1
   fun:_ZN4llvm16TargetPassConfig13addISelPassesEv
   fun:_ZN4llvm17LLVMTargetMachine19addPassesToEmitFileERNS_6legacy15PassManagerBaseERNS_17raw_pwrite_streamEPS4_NS_13TargetMachine15CodeGenFileTypeEbPNS_17MachineModuleInfoE
   obj:/usr/lib/x86_64-linux-gnu/dri/radeonsi_dri.so
   obj:/usr/lib/x86_64-linux-gnu/dri/radeonsi_dri.so
}
{
   <insert_a_suppression_name_here>
   Memcheck:Leak
   match-leak-kinds: reachable
   fun:malloc
   obj:/usr/lib/x86_64-linux-gnu/libLLVM-9.so.1
   fun:_ZN4llvm12PassRegistry12registerPassERKNS_8PassInfoEb
   obj:/usr/lib/x86_64-linux-gnu/libLLVM-9.so.1
   fun:__pthread_once_slow
   fun:_ZN4llvm41initializeR600ExpandSpecialInstrsPassPassERNS_12PassRegistryE
   fun:LLVMInitializeAMDGPUTarget
   obj:/usr/lib/x86_64-linux-gnu/dri/radeonsi_dri.so
   fun:__pthread_once_slow
   obj:/usr/lib/x86_64-linux-gnu/dri/radeonsi_dri.so
   obj:/usr/lib/x86_64-linux-gnu/dri/radeonsi_dri.so
   obj:/usr/lib/x86_64-linux-gnu/dri/radeonsi_dri.so
}
{
   <insert_a_suppression_name_here>
   Memcheck:Leak
   match-leak-kinds: reachable
   fun:malloc
   obj:/usr/lib/x86_64-linux-gnu/libLLVM-9.so.1
   fun:_ZN4llvm12PassRegistry12registerPassERKNS_8PassInfoEb
   obj:/usr/lib/x86_64-linux-gnu/libLLVM-9.so.1
   fun:__pthread_once_slow
   fun:_ZN4llvm50initializeMachineOptimizationRemarkEmitterPassPassERNS_12PassRegistryE
   fun:_ZN4llvm17initializeCodeGenERNS_12PassRegistryE
   fun:_ZN4llvm16TargetPassConfigC1ERNS_17LLVMTargetMachineERNS_6legacy15PassManagerBaseE
   fun:_ZN4llvm16GCNTargetMachine16createPassConfigERNS_6legacy15PassManagerBaseE
   fun:_ZN4llvm17LLVMTargetMachine19addPassesToEmitFileERNS_6legacy15PassManagerBaseERNS_17raw_pwrite_streamEPS4_NS_13TargetMachine15CodeGenFileTypeEbPNS_17MachineModuleInfoE
   obj:/usr/lib/x86_64-linux-gnu/dri/radeonsi_dri.so
   obj:/usr/lib/x86_64-linux-gnu/dri/radeonsi_dri.so
}
{
   <insert_a_suppression_name_here>
   Memcheck:Leak
   match-leak-kinds: reachable
   fun:malloc
   obj:/usr/lib/x86_64-linux-gnu/libLLVM-9.so.1
   fun:_ZN4llvm12PassRegistry12registerPassERKNS_8PassInfoEb
   obj:/usr/lib/x86_64-linux-gnu/libLLVM-9.so.1
   fun:__pthread_once_slow
   fun:_ZN4llvm31initializeRegisterCoalescerPassERNS_12PassRegistryE
   obj:/usr/lib/x86_64-linux-gnu/libLLVM-9.so.1
   fun:__pthread_once_slow
   fun:_ZN4llvm21initializeRABasicPassERNS_12PassRegistryE
   fun:_ZN4llvm17initializeCodeGenERNS_12PassRegistryE
   fun:_ZN4llvm16TargetPassConfigC1ERNS_17LLVMTargetMachineERNS_6legacy15PassManagerBaseE
   fun:_ZN4llvm16GCNTargetMachine16createPassConfigERNS_6legacy15PassManagerBaseE
}
{
   <insert_a_suppression_name_here>
   Memcheck:Leak
   match-leak-kinds: reachable
   fun:malloc
   obj:/usr/lib/x86_64-linux-gnu/libLLVM-9.so.1
   fun:_ZN4llvm12PassRegistry12registerPassERKNS_8PassInfoEb
   obj:/usr/lib/x86_64-linux-gnu/libLLVM-9.so.1
   fun:__pthread_once_slow
   fun:_ZN4llvm38initializeRenameIndependentSubregsPassERNS_12PassRegistryE
   fun:_ZN4llvm17initializeCodeGenERNS_12PassRegistryE
   fun:_ZN4llvm16TargetPassConfigC1ERNS_17LLVMTargetMachineERNS_6legacy15PassManagerBaseE
   fun:_ZN4llvm16GCNTargetMachine16createPassConfigERNS_6legacy15PassManagerBaseE
   fun:_ZN4llvm17LLVMTargetMachine19addPassesToEmitFileERNS_6legacy15PassManagerBaseERNS_17raw_pwrite_streamEPS4_NS_13TargetMachine15CodeGenFileTypeEbPNS_17MachineModuleInfoE
   obj:/usr/lib/x86_64-linux-gnu/dri/radeonsi_dri.so
   obj:/usr/lib/x86_64-linux-gnu/dri/radeonsi_dri.so
}
{
   <insert_a_suppression_name_here>
   Memcheck:Leak
   match-leak-kinds: reachable
   fun:malloc
   obj:/usr/lib/x86_64-linux-gnu/libLLVM-9.so.1
   fun:_ZN4llvm12PassRegistry12registerPassERKNS_8PassInfoEb
   obj:/usr/lib/x86_64-linux-gnu/libLLVM-9.so.1
   fun:__pthread_once_slow
   fun:_ZN4llvm47initializeAMDGPUOpenCLEnqueuedBlockLoweringPassERNS_12PassRegistryE
   fun:LLVMInitializeAMDGPUTarget
   obj:/usr/lib/x86_64-linux-gnu/dri/radeonsi_dri.so
   fun:__pthread_once_slow
   obj:/usr/lib/x86_64-linux-gnu/dri/radeonsi_dri.so
   obj:/usr/lib/x86_64-linux-gnu/dri/radeonsi_dri.so
   obj:/usr/lib/x86_64-linux-gnu/dri/radeonsi_dri.so
}
{
   <insert_a_suppression_name_here>
   Memcheck:Leak
   match-leak-kinds: reachable
   fun:malloc
   obj:/usr/lib/x86_64-linux-gnu/libLLVM-9.so.1
   fun:_ZN4llvm12PassRegistry12registerPassERKNS_8PassInfoEb
   obj:/usr/lib/x86_64-linux-gnu/libLLVM-9.so.1
   fun:__pthread_once_slow
   fun:_ZN4llvm41initializeUnreachableMachineBlockElimPassERNS_12PassRegistryE
   obj:/usr/lib/x86_64-linux-gnu/libLLVM-9.so.1
   fun:__pthread_once_slow
   fun:_ZN4llvm27initializeLiveVariablesPassERNS_12PassRegistryE
   fun:_ZN4llvm17initializeCodeGenERNS_12PassRegistryE
   fun:_ZN4llvm16TargetPassConfigC1ERNS_17LLVMTargetMachineERNS_6legacy15PassManagerBaseE
   fun:_ZN4llvm16GCNTargetMachine16createPassConfigERNS_6legacy15PassManagerBaseE
}
{
   <insert_a_suppression_name_here>
   Memcheck:Leak
   match-leak-kinds: reachable
   fun:malloc
   obj:/usr/lib/x86_64-linux-gnu/libLLVM-9.so.1
   fun:_ZN4llvm12PassRegistry12registerPassERKNS_8PassInfoEb
   obj:/usr/lib/x86_64-linux-gnu/libLLVM-9.so.1
   fun:__pthread_once_slow
   fun:_ZN4llvm48initializePreISelIntrinsicLoweringLegacyPassPassERNS_12PassRegistryE
   fun:_ZN4llvm17initializeCodeGenERNS_12PassRegistryE
   fun:_ZN4llvm16TargetPassConfigC1ERNS_17LLVMTargetMachineERNS_6legacy15PassManagerBaseE
   fun:_ZN4llvm16GCNTargetMachine16createPassConfigERNS_6legacy15PassManagerBaseE
   fun:_ZN4llvm17LLVMTargetMachine19addPassesToEmitFileERNS_6legacy15PassManagerBaseERNS_17raw_pwrite_streamEPS4_NS_13TargetMachine15CodeGenFileTypeEbPNS_17MachineModuleInfoE
   obj:/usr/lib/x86_64-linux-gnu/dri/radeonsi_dri.so
   obj:/usr/lib/x86_64-linux-gnu/dri/radeonsi_dri.so
}
{
   <insert_a_suppression_name_here>
   Memcheck:Leak
   match-leak-kinds: reachable
   fun:malloc
   obj:/usr/lib/x86_64-linux-gnu/libLLVM-9.so.1
   fun:_ZN4llvm12PassRegistry12registerPassERKNS_8PassInfoEb
   obj:/usr/lib/x86_64-linux-gnu/libLLVM-9.so.1
   fun:__pthread_once_slow
   fun:_ZN4llvm38initializeScalarizeMaskedMemIntrinPassERNS_12PassRegistryE
   fun:_ZN4llvm17initializeCodeGenERNS_12PassRegistryE
   fun:_ZN4llvm16TargetPassConfigC1ERNS_17LLVMTargetMachineERNS_6legacy15PassManagerBaseE
   fun:_ZN4llvm16GCNTargetMachine16createPassConfigERNS_6legacy15PassManagerBaseE
   fun:_ZN4llvm17LLVMTargetMachine19addPassesToEmitFileERNS_6legacy15PassManagerBaseERNS_17raw_pwrite_streamEPS4_NS_13TargetMachine15CodeGenFileTypeEbPNS_17MachineModuleInfoE
   obj:/usr/lib/x86_64-linux-gnu/dri/radeonsi_dri.so
   obj:/usr/lib/x86_64-linux-gnu/dri/radeonsi_dri.so
}
{
   <insert_a_suppression_name_here>
   Memcheck:Leak
   match-leak-kinds: reachable
   fun:malloc
   obj:/usr/lib/x86_64-linux-gnu/libLLVM-9.so.1
   fun:_ZN4llvm12PassRegistry12registerPassERKNS_8PassInfoEb
   obj:/usr/lib/x86_64-linux-gnu/libLLVM-9.so.1
   fun:__pthread_once_slow
   fun:_ZN4llvm39initializeAMDGPUFixFunctionBitcastsPassERNS_12PassRegistryE
   fun:LLVMInitializeAMDGPUTarget
   obj:/usr/lib/x86_64-linux-gnu/dri/radeonsi_dri.so
   fun:__pthread_once_slow
   obj:/usr/lib/x86_64-linux-gnu/dri/radeonsi_dri.so
   obj:/usr/lib/x86_64-linux-gnu/dri/radeonsi_dri.so
   obj:/usr/lib/x86_64-linux-gnu/dri/radeonsi_dri.so
}
{
   <insert_a_suppression_name_here>
   Memcheck:Leak
   match-leak-kinds: reachable
   fun:malloc
   obj:/usr/lib/x86_64-linux-gnu/libLLVM-9.so.1
   fun:_ZN4llvm12PassRegistry12registerPassERKNS_8PassInfoEb
   obj:/usr/lib/x86_64-linux-gnu/libLLVM-9.so.1
   fun:__pthread_once_slow
   fun:_ZN4llvm39initializeAMDGPURewriteOutArgumentsPassERNS_12PassRegistryE
   fun:LLVMInitializeAMDGPUTarget
   obj:/usr/lib/x86_64-linux-gnu/dri/radeonsi_dri.so
   fun:__pthread_once_slow
   obj:/usr/lib/x86_64-linux-gnu/dri/radeonsi_dri.so
   obj:/usr/lib/x86_64-linux-gnu/dri/radeonsi_dri.so
   obj:/usr/lib/x86_64-linux-gnu/dri/radeonsi_dri.so
}
{
   <insert_a_suppression_name_here>
   Memcheck:Leak
   match-leak-kinds: reachable
   fun:malloc
   fun:strdup
   fun:_dl_map_object
   fun:dl_open_worker
   fun:_dl_catch_exception
   fun:_dl_open
   fun:dlopen_doit
   fun:_dl_catch_exception
   fun:_dl_catch_error
   fun:_dlerror_run
   fun:dlopen@@GLIBC_2.2.5
   obj:*
}
{
   <insert_a_suppression_name_here>
   Memcheck:Leak
   match-leak-kinds: reachable
   fun:malloc
   obj:/usr/lib/x86_64-linux-gnu/libLLVM-9.so.1
   fun:_ZN4llvm12PassRegistry12registerPassERKNS_8PassInfoEb
   obj:/usr/lib/x86_64-linux-gnu/libLLVM-9.so.1
   fun:__pthread_once_slow
   fun:_ZN4llvm40initializeAMDGPULowerKernelArgumentsPassERNS_12PassRegistryE
   fun:LLVMInitializeAMDGPUTarget
   obj:/usr/lib/x86_64-linux-gnu/dri/radeonsi_dri.so
   fun:__pthread_once_slow
   obj:/usr/lib/x86_64-linux-gnu/dri/radeonsi_dri.so
   obj:/usr/lib/x86_64-linux-gnu/dri/radeonsi_dri.so
   obj:/usr/lib/x86_64-linux-gnu/dri/radeonsi_dri.so
}
{
   <insert_a_suppression_name_here>
   Memcheck:Leak
   match-leak-kinds: reachable
   fun:malloc
   obj:/usr/lib/x86_64-linux-gnu/libLLVM-9.so.1
   fun:_ZN4llvm12PassRegistry12registerPassERKNS_8PassInfoEb
   obj:/usr/lib/x86_64-linux-gnu/libLLVM-9.so.1
   fun:__pthread_once_slow
   fun:_ZN4llvm37initializeAMDGPUArgumentUsageInfoPassERNS_12PassRegistryE
   obj:/usr/lib/x86_64-linux-gnu/libLLVM-9.so.1
   fun:__pthread_once_slow
   fun:_ZN4llvm32initializeAMDGPUDAGToDAGISelPassERNS_12PassRegistryE
   fun:LLVMInitializeAMDGPUTarget
   obj:/usr/lib/x86_64-linux-gnu/dri/radeonsi_dri.so
   fun:__pthread_once_slow
}
{
   <insert_a_suppression_name_here>
   Memcheck:Leak
   match-leak-kinds: reachable
   fun:malloc
   obj:/usr/lib/x86_64-linux-gnu/libLLVM-9.so.1
   fun:_ZN4llvm12PassRegistry12registerPassERKNS_8PassInfoEb
   obj:/usr/lib/x86_64-linux-gnu/libLLVM-9.so.1
   fun:__pthread_once_slow
   fun:_ZN4llvm41initializeAMDGPULowerKernelAttributesPassERNS_12PassRegistryE
   fun:LLVMInitializeAMDGPUTarget
   obj:/usr/lib/x86_64-linux-gnu/dri/radeonsi_dri.so
   fun:__pthread_once_slow
   obj:/usr/lib/x86_64-linux-gnu/dri/radeonsi_dri.so
   obj:/usr/lib/x86_64-linux-gnu/dri/radeonsi_dri.so
   obj:/usr/lib/x86_64-linux-gnu/dri/radeonsi_dri.so
}
{
   <insert_a_suppression_name_here>
   Memcheck:Leak
   match-leak-kinds: reachable
   fun:malloc
   obj:/usr/lib/x86_64-linux-gnu/libLLVM-9.so.1
   fun:_ZN4llvm12PassRegistry12registerPassERKNS_8PassInfoEb
   obj:/usr/lib/x86_64-linux-gnu/libLLVM-9.so.1
   fun:__pthread_once_slow
   fun:_ZN4llvm36createSeparateConstOffsetFromGEPPassEb
   obj:/usr/lib/x86_64-linux-gnu/libLLVM-9.so.1
   fun:_ZN4llvm16TargetPassConfig13addISelPassesEv
   fun:_ZN4llvm17LLVMTargetMachine19addPassesToEmitFileERNS_6legacy15PassManagerBaseERNS_17raw_pwrite_streamEPS4_NS_13TargetMachine15CodeGenFileTypeEbPNS_17MachineModuleInfoE
   obj:/usr/lib/x86_64-linux-gnu/dri/radeonsi_dri.so
   obj:/usr/lib/x86_64-linux-gnu/dri/radeonsi_dri.so
   obj:/usr/lib/x86_64-linux-gnu/dri/radeonsi_dri.so
}
{
   <insert_a_suppression_name_here>
   Memcheck:Leak
   match-leak-kinds: reachable
   fun:malloc
   fun:_XlcAddCT
   fun:_XlcInitCTInfo
   obj:/usr/lib/x86_64-linux-gnu/libX11.so.6.3.0
   obj:/usr/lib/x86_64-linux-gnu/libX11.so.6.3.0
   fun:_XlcCreateLC
   fun:_XlcUtf8Loader
   fun:_XOpenLC
   fun:_XlcCurrentLC
   fun:XSetLocaleModifiers
   obj:/usr/lib/x86_64-linux-gnu/libSDL2-2.0.so.0.10.0
   obj:/usr/lib/x86_64-linux-gnu/libSDL2-2.0.so.0.10.0
}
{
   <insert_a_suppression_name_here>
   Memcheck:Leak
   match-leak-kinds: reachable
   fun:malloc
   obj:/usr/lib/x86_64-linux-gnu/libLLVM-9.so.1
   fun:_ZN4llvm12PassRegistry12registerPassERKNS_8PassInfoEb
   obj:/usr/lib/x86_64-linux-gnu/libLLVM-9.so.1
   fun:__pthread_once_slow
   fun:_ZN4llvm40initializeSIOptimizeExecMaskingPreRAPassERNS_12PassRegistryE
   fun:LLVMInitializeAMDGPUTarget
   obj:/usr/lib/x86_64-linux-gnu/dri/radeonsi_dri.so
   fun:__pthread_once_slow
   obj:/usr/lib/x86_64-linux-gnu/dri/radeonsi_dri.so
   obj:/usr/lib/x86_64-linux-gnu/dri/radeonsi_dri.so
   obj:/usr/lib/x86_64-linux-gnu/dri/radeonsi_dri.so
}
{
   <insert_a_suppression_name_here>
   Memcheck:Leak
   match-leak-kinds: reachable
   fun:malloc
   obj:/usr/lib/x86_64-linux-gnu/libLLVM-9.so.1
   fun:_ZN4llvm12PassRegistry12registerPassERKNS_8PassInfoEb
   obj:/usr/lib/x86_64-linux-gnu/libLLVM-9.so.1
   fun:__pthread_once_slow
   fun:_ZN4llvm42initializeAMDGPUAnnotateKernelFeaturesPassERNS_12PassRegistryE
   fun:LLVMInitializeAMDGPUTarget
   obj:/usr/lib/x86_64-linux-gnu/dri/radeonsi_dri.so
   fun:__pthread_once_slow
   obj:/usr/lib/x86_64-linux-gnu/dri/radeonsi_dri.so
   obj:/usr/lib/x86_64-linux-gnu/dri/radeonsi_dri.so
   obj:/usr/lib/x86_64-linux-gnu/dri/radeonsi_dri.so
}
{
   <insert_a_suppression_name_here>
   Memcheck:Leak
   match-leak-kinds: reachable
   fun:_Znwm
   fun:_ZNSt8_Rb_treeIN4llvm3EVTES1_St9_IdentityIS1_ENS1_14compareRawBitsESaIS1_EE16_M_insert_uniqueIRKS1_EESt4pairISt17_Rb_tree_iteratorIS1_EbEOT_
   fun:_ZN4llvm6SDNode16getValueTypeListENS_3EVTE
   fun:_ZN4llvm12SelectionDAG7getNodeEjRKNS_5SDLocENS_3EVTENS_7SDValueENS_11SDNodeFlagsE
   obj:/usr/lib/x86_64-linux-gnu/libLLVM-9.so.1
   obj:/usr/lib/x86_64-linux-gnu/libLLVM-9.so.1
   obj:/usr/lib/x86_64-linux-gnu/libLLVM-9.so.1
   fun:_ZN4llvm12SelectionDAG13LegalizeTypesEv
   fun:_ZN4llvm16SelectionDAGISel17CodeGenAndEmitDAGEv
   fun:_ZN4llvm16SelectionDAGISel20SelectAllBasicBlocksERKNS_8FunctionE
   fun:_ZN4llvm16SelectionDAGISel20runOnMachineFunctionERNS_15MachineFunctionE
   fun:_ZN4llvm19MachineFunctionPass13runOnFunctionERNS_8FunctionE
}
{
   <insert_a_suppression_name_here>
   Memcheck:Leak
   match-leak-kinds: reachable
   fun:malloc
   obj:/usr/lib/x86_64-linux-gnu/libLLVM-9.so.1
   fun:_ZN4llvm12PassRegistry12registerPassERKNS_8PassInfoEb
   obj:/usr/lib/x86_64-linux-gnu/libLLVM-9.so.1
   fun:__pthread_once_slow
   fun:_ZN4llvm43initializeAMDGPUPropagateAttributesLatePassERNS_12PassRegistryE
   fun:LLVMInitializeAMDGPUTarget
   obj:/usr/lib/x86_64-linux-gnu/dri/radeonsi_dri.so
   fun:__pthread_once_slow
   obj:/usr/lib/x86_64-linux-gnu/dri/radeonsi_dri.so
   obj:/usr/lib/x86_64-linux-gnu/dri/radeonsi_dri.so
   obj:/usr/lib/x86_64-linux-gnu/dri/radeonsi_dri.so
}
{
   <insert_a_suppression_name_here>
   Memcheck:Leak
   match-leak-kinds: reachable
   fun:malloc
   obj:/usr/lib/x86_64-linux-gnu/libLLVM-9.so.1
   fun:_ZN4llvm12PassRegistry12registerPassERKNS_8PassInfoEb
   obj:/usr/lib/x86_64-linux-gnu/libLLVM-9.so.1
   fun:__pthread_once_slow
   fun:_ZN4llvm44initializeAMDGPUPropagateAttributesEarlyPassERNS_12PassRegistryE
   fun:LLVMInitializeAMDGPUTarget
   obj:/usr/lib/x86_64-linux-gnu/dri/radeonsi_dri.so
   fun:__pthread_once_slow
   obj:/usr/lib/x86_64-linux-gnu/dri/radeonsi_dri.so
   obj:/usr/lib/x86_64-linux-gnu/dri/radeonsi_dri.so
   obj:/usr/lib/x86_64-linux-gnu/dri/radeonsi_dri.so
}
{
   <insert_a_suppression_name_here>
   Memcheck:Leak
   match-leak-kinds: reachable
   fun:malloc
   obj:/usr/lib/x86_64-linux-gnu/libLLVM-9.so.1
   fun:_ZN4llvm12PassRegistry12registerPassERKNS_8PassInfoEb
   obj:/usr/lib/x86_64-linux-gnu/libLLVM-9.so.1
   fun:__pthread_once_slow
   fun:_ZN4llvm43initializeAMDGPUUnifyDivergentExitNodesPassERNS_12PassRegistryE
   fun:LLVMInitializeAMDGPUTarget
   obj:/usr/lib/x86_64-linux-gnu/dri/radeonsi_dri.so
   fun:__pthread_once_slow
   obj:/usr/lib/x86_64-linux-gnu/dri/radeonsi_dri.so
   obj:/usr/lib/x86_64-linux-gnu/dri/radeonsi_dri.so
   obj:/usr/lib/x86_64-linux-gnu/dri/radeonsi_dri.so
}
{
   <insert_a_suppression_name_here>
   Memcheck:Leak
   match-leak-kinds: reachable
   fun:malloc
   fun:_ZN4llvm3sys11RWMutexImplC1Ev
   obj:/usr/lib/x86_64-linux-gnu/libLLVM-9.so.1
   fun:_ZNK4llvm17ManagedStaticBase21RegisterManagedStaticEPFPvvEPFvS1_E
   fun:_ZN4llvm12PassRegistry15getPassRegistryEv
   fun:_ZN4llvm14PassNameParserC1ERNS_2cl6OptionE
   obj:/usr/lib/x86_64-linux-gnu/libLLVM-9.so.1
   fun:call_init.part.0
   fun:call_init
   fun:_dl_init
   fun:_dl_catch_exception
   fun:dl_open_worker
   fun:_dl_catch_exception
}
{
   <insert_a_suppression_name_here>
   Memcheck:Leak
   match-leak-kinds: reachable
   fun:malloc
   fun:_XrmInternalStringToQuark
   fun:_XlcGetCharSet
   fun:_XlcAddCT
   fun:_XlcInitCTInfo
   obj:/usr/lib/x86_64-linux-gnu/libX11.so.6.3.0
   obj:/usr/lib/x86_64-linux-gnu/libX11.so.6.3.0
   fun:_XlcCreateLC
   fun:_XlcUtf8Loader
   fun:_XOpenLC
   fun:_XlcCurrentLC
   fun:XSetLocaleModifiers
}
{
   <insert_a_suppression_name_here>
   Memcheck:Leak
   match-leak-kinds: reachable
   fun:malloc
   fun:_XlcSetConverter
   fun:_XlcInitCTInfo
   obj:/usr/lib/x86_64-linux-gnu/libX11.so.6.3.0
   obj:/usr/lib/x86_64-linux-gnu/libX11.so.6.3.0
   fun:_XlcCreateLC
   fun:_XlcUtf8Loader
   fun:_XOpenLC
   fun:_XlcCurrentLC
   fun:XSetLocaleModifiers
   obj:/usr/lib/x86_64-linux-gnu/libSDL2-2.0.so.0.10.0
   obj:/usr/lib/x86_64-linux-gnu/libSDL2-2.0.so.0.10.0
}
{
   <insert_a_suppression_name_here>
   Memcheck:Leak
   match-leak-kinds: reachable
   fun:malloc
   fun:_XlcSetConverter
   fun:_XlcDefaultLoader
   fun:_XOpenLC
   fun:_XlcCurrentLC
   fun:XSetLocaleModifiers
   obj:/usr/lib/x86_64-linux-gnu/libSDL2-2.0.so.0.10.0
   obj:/usr/lib/x86_64-linux-gnu/libSDL2-2.0.so.0.10.0
   obj:/usr/lib/x86_64-linux-gnu/libSDL2-2.0.so.0.10.0
   obj:/usr/lib/x86_64-linux-gnu/libSDL2-2.0.so.0.10.0
   fun:_ZN9SDLWindowC1Eii
   fun:main
}
{
   <insert_a_suppression_name_here>
   Memcheck:Leak
   match-leak-kinds: reachable
   fun:malloc
   fun:_XlcSetConverter
   fun:_XlcAddUtf8Converters
   fun:_XlcDefaultLoader
   fun:_XOpenLC
   fun:_XlcCurrentLC
   fun:XSetLocaleModifiers
   obj:/usr/lib/x86_64-linux-gnu/libSDL2-2.0.so.0.10.0
   obj:/usr/lib/x86_64-linux-gnu/libSDL2-2.0.so.0.10.0
   obj:/usr/lib/x86_64-linux-gnu/libSDL2-2.0.so.0.10.0
   obj:/usr/lib/x86_64-linux-gnu/libSDL2-2.0.so.0.10.0
   fun:_ZN9SDLWindowC1Eii
}
{
   <insert_a_suppression_name_here>
   Memcheck:Leak
   match-leak-kinds: reachable
   fun:malloc
   fun:_XlcSetConverter
   fun:_XlcAddUtf8LocaleConverters
   fun:_XlcUtf8Loader
   fun:_XOpenLC
   fun:_XlcCurrentLC
   fun:XSetLocaleModifiers
   obj:/usr/lib/x86_64-linux-gnu/libSDL2-2.0.so.0.10.0
   obj:/usr/lib/x86_64-linux-gnu/libSDL2-2.0.so.0.10.0
   obj:/usr/lib/x86_64-linux-gnu/libSDL2-2.0.so.0.10.0
   obj:/usr/lib/x86_64-linux-gnu/libSDL2-2.0.so.0.10.0
   fun:_ZN9SDLWindowC1Eii
}
{
   <insert_a_suppression_name_here>
   Memcheck:Leak
   match-leak-kinds: reachable
   fun:malloc
   fun:_XlcSetConverter
   fun:_XlcUtf8Loader
   fun:_XOpenLC
   fun:_XlcCurrentLC
   fun:XSetLocaleModifiers
   obj:/usr/lib/x86_64-linux-gnu/libSDL2-2.0.so.0.10.0
   obj:/usr/lib/x86_64-linux-gnu/libSDL2-2.0.so.0.10.0
   obj:/usr/lib/x86_64-linux-gnu/libSDL2-2.0.so.0.10.0
   obj:/usr/lib/x86_64-linux-gnu/libSDL2-2.0.so.0.10.0
   fun:_ZN9SDLWindowC1Eii
   fun:main
}
{
   <insert_a_suppression_name_here>
   Memcheck:Leak
   match-leak-kinds: reachable
   fun:malloc
   fun:_XlcSetConverter
   fun:_XlcAddUtf8Converters
   fun:_XlcUtf8Loader
   fun:_XOpenLC
   fun:_XlcCurrentLC
   fun:XSetLocaleModifiers
   obj:/usr/lib/x86_64-linux-gnu/libSDL2-2.0.so.0.10.0
   obj:/usr/lib/x86_64-linux-gnu/libSDL2-2.0.so.0.10.0
   obj:/usr/lib/x86_64-linux-gnu/libSDL2-2.0.so.0.10.0
   obj:/usr/lib/x86_64-linux-gnu/libSDL2-2.0.so.0.10.0
   fun:_ZN9SDLWindowC1Eii
}
{
   <insert_a_suppression_name_here>
   Memcheck:Leak
   match-leak-kinds: reachable
   fun:malloc
   fun:_dbus_strdup
   obj:/lib/x86_64-linux-gnu/libdbus-1.so.3.19.11
   obj:/lib/x86_64-linux-gnu/libdbus-1.so.3.19.11
   obj:/usr/lib/x86_64-linux-gnu/libSDL2-2.0.so.0.10.0
   obj:/usr/lib/x86_64-linux-gnu/libSDL2-2.0.so.0.10.0
   obj:/usr/lib/x86_64-linux-gnu/libSDL2-2.0.so.0.10.0
   obj:/usr/lib/x86_64-linux-gnu/libSDL2-2.0.so.0.10.0
   obj:/usr/lib/x86_64-linux-gnu/libSDL2-2.0.so.0.10.0
   obj:/usr/lib/x86_64-linux-gnu/libSDL2-2.0.so.0.10.0
   obj:/usr/lib/x86_64-linux-gnu/libSDL2-2.0.so.0.10.0
   obj:/usr/lib/x86_64-linux-gnu/libSDL2-2.0.so.0.10.0
}
{
   <insert_a_suppression_name_here>
   Memcheck:Leak
   match-leak-kinds: reachable
   fun:malloc
   fun:_XlcCreateDefaultCharSet
   obj:/usr/lib/x86_64-linux-gnu/libX11.so.6.3.0
   obj:/usr/lib/x86_64-linux-gnu/libX11.so.6.3.0
   fun:_XlcCreateLC
   fun:_XlcUtf8Loader
   fun:_XOpenLC
   fun:_XlcCurrentLC
   fun:XSetLocaleModifiers
   obj:/usr/lib/x86_64-linux-gnu/libSDL2-2.0.so.0.10.0
   obj:/usr/lib/x86_64-linux-gnu/libSDL2-2.0.so.0.10.0
   obj:/usr/lib/x86_64-linux-gnu/libSDL2-2.0.so.0.10.0
}
{
   <insert_a_suppression_name_here>
   Memcheck:Leak
   match-leak-kinds: reachable
   fun:malloc
   obj:/usr/lib/x86_64-linux-gnu/libLLVM-9.so.1
   obj:/usr/lib/x86_64-linux-gnu/libLLVM-9.so.1
   fun:_ZN4llvm2cl5applyINS0_3optINS_13RegBankSelect4ModeELb0ENS0_6parserIS4_EEEENS0_18NumOccurrencesFlagEJNS0_11ValuesClassEEEEvPT_RKT0_DpRKT1_
   obj:/usr/lib/x86_64-linux-gnu/libLLVM-9.so.1
   fun:call_init.part.0
   fun:call_init
   fun:_dl_init
   fun:_dl_catch_exception
   fun:dl_open_worker
   fun:_dl_catch_exception
   fun:_dl_open
   fun:dlopen_doit
}
{
   <insert_a_suppression_name_here>
   Memcheck:Leak
   match-leak-kinds: reachable
   fun:_Znwm
   obj:/usr/lib/x86_64-linux-gnu/libLLVM-9.so.1
   fun:__pthread_once_slow
   fun:_ZN4llvm33initializeR600ClauseMergePassPassERNS_12PassRegistryE
   fun:LLVMInitializeAMDGPUTarget
   obj:/usr/lib/x86_64-linux-gnu/dri/radeonsi_dri.so
   fun:__pthread_once_slow
   obj:/usr/lib/x86_64-linux-gnu/dri/radeonsi_dri.so
   obj:/usr/lib/x86_64-linux-gnu/dri/radeonsi_dri.so
   obj:/usr/lib/x86_64-linux-gnu/dri/radeonsi_dri.so
   obj:/usr/lib/x86_64-linux-gnu/dri/radeonsi_dri.so
   fun:start_thread
}
{
   <insert_a_suppression_name_here>
   Memcheck:Leak
   match-leak-kinds: reachable
   fun:_Znwm
   obj:/usr/lib/x86_64-linux-gnu/libLLVM-9.so.1
   fun:__pthread_once_slow
   fun:_ZN4llvm38initializeR600ControlFlowFinalizerPassERNS_12PassRegistryE
   fun:LLVMInitializeAMDGPUTarget
   obj:/usr/lib/x86_64-linux-gnu/dri/radeonsi_dri.so
   fun:__pthread_once_slow
   obj:/usr/lib/x86_64-linux-gnu/dri/radeonsi_dri.so
   obj:/usr/lib/x86_64-linux-gnu/dri/radeonsi_dri.so
   obj:/usr/lib/x86_64-linux-gnu/dri/radeonsi_dri.so
   obj:/usr/lib/x86_64-linux-gnu/dri/radeonsi_dri.so
   fun:start_thread
}
{
   <insert_a_suppression_name_here>
   Memcheck:Leak
   match-leak-kinds: reachable
   fun:_Znwm
   obj:/usr/lib/x86_64-linux-gnu/libLLVM-9.so.1
   fun:__pthread_once_slow
   fun:_ZN4llvm28initializeR600PacketizerPassERNS_12PassRegistryE
   fun:LLVMInitializeAMDGPUTarget
   obj:/usr/lib/x86_64-linux-gnu/dri/radeonsi_dri.so
   fun:__pthread_once_slow
   obj:/usr/lib/x86_64-linux-gnu/dri/radeonsi_dri.so
   obj:/usr/lib/x86_64-linux-gnu/dri/radeonsi_dri.so
   obj:/usr/lib/x86_64-linux-gnu/dri/radeonsi_dri.so
   obj:/usr/lib/x86_64-linux-gnu/dri/radeonsi_dri.so
   fun:start_thread
}
{
   <insert_a_suppression_name_here>
   Memcheck:Leak
   match-leak-kinds: reachable
   fun:_Znwm
   obj:/usr/lib/x86_64-linux-gnu/libLLVM-9.so.1
   fun:__pthread_once_slow
   fun:_ZN4llvm41initializeR600ExpandSpecialInstrsPassPassERNS_12PassRegistryE
   fun:LLVMInitializeAMDGPUTarget
   obj:/usr/lib/x86_64-linux-gnu/dri/radeonsi_dri.so
   fun:__pthread_once_slow
   obj:/usr/lib/x86_64-linux-gnu/dri/radeonsi_dri.so
   obj:/usr/lib/x86_64-linux-gnu/dri/radeonsi_dri.so
   obj:/usr/lib/x86_64-linux-gnu/dri/radeonsi_dri.so
   obj:/usr/lib/x86_64-linux-gnu/dri/radeonsi_dri.so
   fun:start_thread
}
{
   <insert_a_suppression_name_here>
   Memcheck:Leak
   match-leak-kinds: reachable
   fun:_Znwm
   obj:/usr/lib/x86_64-linux-gnu/libLLVM-9.so.1
   fun:__pthread_once_slow
   fun:_ZN4llvm33initializeR600VectorRegMergerPassERNS_12PassRegistryE
   fun:LLVMInitializeAMDGPUTarget
   obj:/usr/lib/x86_64-linux-gnu/dri/radeonsi_dri.so
   fun:__pthread_once_slow
   obj:/usr/lib/x86_64-linux-gnu/dri/radeonsi_dri.so
   obj:/usr/lib/x86_64-linux-gnu/dri/radeonsi_dri.so
   obj:/usr/lib/x86_64-linux-gnu/dri/radeonsi_dri.so
   obj:/usr/lib/x86_64-linux-gnu/dri/radeonsi_dri.so
   fun:start_thread
}
{
   <insert_a_suppression_name_here>
   Memcheck:Leak
   match-leak-kinds: reachable
   fun:_Znwm
   obj:/usr/lib/x86_64-linux-gnu/libLLVM-9.so.1
   fun:__pthread_once_slow
   fun:_ZN4llvm30initializeTargetPassConfigPassERNS_12PassRegistryE
   obj:/usr/lib/x86_64-linux-gnu/libLLVM-9.so.1
   fun:__pthread_once_slow
   fun:_ZN4llvm26initializeIRTranslatorPassERNS_12PassRegistryE
   fun:_ZN4llvm20initializeGlobalISelERNS_12PassRegistryE
   fun:LLVMInitializeAMDGPUTarget
   obj:/usr/lib/x86_64-linux-gnu/dri/radeonsi_dri.so
   fun:__pthread_once_slow
   obj:/usr/lib/x86_64-linux-gnu/dri/radeonsi_dri.so
}
{
   <insert_a_suppression_name_here>
   Memcheck:Leak
   match-leak-kinds: reachable
   fun:_Znwm
   obj:/usr/lib/x86_64-linux-gnu/libLLVM-9.so.1
   fun:__pthread_once_slow
   fun:_ZN4llvm41initializeGISelCSEAnalysisWrapperPassPassERNS_12PassRegistryE
   obj:/usr/lib/x86_64-linux-gnu/libLLVM-9.so.1
   fun:__pthread_once_slow
   fun:_ZN4llvm26initializeIRTranslatorPassERNS_12PassRegistryE
   fun:_ZN4llvm20initializeGlobalISelERNS_12PassRegistryE
   fun:LLVMInitializeAMDGPUTarget
   obj:/usr/lib/x86_64-linux-gnu/dri/radeonsi_dri.so
   fun:__pthread_once_slow
   obj:/usr/lib/x86_64-linux-gnu/dri/radeonsi_dri.so
}
{
   <insert_a_suppression_name_here>
   Memcheck:Leak
   match-leak-kinds: reachable
   fun:_Znwm
   obj:/usr/lib/x86_64-linux-gnu/libLLVM-9.so.1
   fun:__pthread_once_slow
   fun:_ZN4llvm26initializeIRTranslatorPassERNS_12PassRegistryE
   fun:_ZN4llvm20initializeGlobalISelERNS_12PassRegistryE
   fun:LLVMInitializeAMDGPUTarget
   obj:/usr/lib/x86_64-linux-gnu/dri/radeonsi_dri.so
   fun:__pthread_once_slow
   obj:/usr/lib/x86_64-linux-gnu/dri/radeonsi_dri.so
   obj:/usr/lib/x86_64-linux-gnu/dri/radeonsi_dri.so
   obj:/usr/lib/x86_64-linux-gnu/dri/radeonsi_dri.so
   obj:/usr/lib/x86_64-linux-gnu/dri/radeonsi_dri.so
}
{
   <insert_a_suppression_name_here>
   Memcheck:Leak
   match-leak-kinds: reachable
   fun:_Znwm
   obj:/usr/lib/x86_64-linux-gnu/libLLVM-9.so.1
   fun:__pthread_once_slow
   fun:_ZN4llvm23initializeLegalizerPassERNS_12PassRegistryE
   fun:_ZN4llvm20initializeGlobalISelERNS_12PassRegistryE
   fun:LLVMInitializeAMDGPUTarget
   obj:/usr/lib/x86_64-linux-gnu/dri/radeonsi_dri.so
   fun:__pthread_once_slow
   obj:/usr/lib/x86_64-linux-gnu/dri/radeonsi_dri.so
   obj:/usr/lib/x86_64-linux-gnu/dri/radeonsi_dri.so
   obj:/usr/lib/x86_64-linux-gnu/dri/radeonsi_dri.so
   obj:/usr/lib/x86_64-linux-gnu/dri/radeonsi_dri.so
}
{
   <insert_a_suppression_name_here>
   Memcheck:Leak
   match-leak-kinds: reachable
   fun:_Znwm
   obj:/usr/lib/x86_64-linux-gnu/libLLVM-9.so.1
   fun:__pthread_once_slow
   fun:_ZN4llvm44initializeTargetTransformInfoWrapperPassPassERNS_12PassRegistryE
   obj:/usr/lib/x86_64-linux-gnu/libLLVM-9.so.1
   fun:__pthread_once_slow
   fun:_ZN4llvm23initializeLocalizerPassERNS_12PassRegistryE
   fun:_ZN4llvm20initializeGlobalISelERNS_12PassRegistryE
   fun:LLVMInitializeAMDGPUTarget
   obj:/usr/lib/x86_64-linux-gnu/dri/radeonsi_dri.so
   fun:__pthread_once_slow
   obj:/usr/lib/x86_64-linux-gnu/dri/radeonsi_dri.so
}
{
   <insert_a_suppression_name_here>
   Memcheck:Leak
   match-leak-kinds: reachable
   fun:_Znwm
   obj:/usr/lib/x86_64-linux-gnu/libLLVM-9.so.1
   fun:__pthread_once_slow
   fun:_ZN4llvm23initializeLocalizerPassERNS_12PassRegistryE
   fun:_ZN4llvm20initializeGlobalISelERNS_12PassRegistryE
   fun:LLVMInitializeAMDGPUTarget
   obj:/usr/lib/x86_64-linux-gnu/dri/radeonsi_dri.so
   fun:__pthread_once_slow
   obj:/usr/lib/x86_64-linux-gnu/dri/radeonsi_dri.so
   obj:/usr/lib/x86_64-linux-gnu/dri/radeonsi_dri.so
   obj:/usr/lib/x86_64-linux-gnu/dri/radeonsi_dri.so
   obj:/usr/lib/x86_64-linux-gnu/dri/radeonsi_dri.so
}
{
   <insert_a_suppression_name_here>
   Memcheck:Leak
   match-leak-kinds: reachable
   fun:_Znwm
   obj:/usr/lib/x86_64-linux-gnu/libLLVM-9.so.1
   fun:__pthread_once_slow
   fun:_ZN4llvm42initializeMachineBranchProbabilityInfoPassERNS_12PassRegistryE
   obj:/usr/lib/x86_64-linux-gnu/libLLVM-9.so.1
   fun:__pthread_once_slow
   fun:_ZN4llvm39initializeMachineBlockFrequencyInfoPassERNS_12PassRegistryE
   obj:/usr/lib/x86_64-linux-gnu/libLLVM-9.so.1
   fun:__pthread_once_slow
   fun:_ZN4llvm27initializeRegBankSelectPassERNS_12PassRegistryE
   fun:_ZN4llvm20initializeGlobalISelERNS_12PassRegistryE
   fun:LLVMInitializeAMDGPUTarget
}
{
   <insert_a_suppression_name_here>
   Memcheck:Leak
   match-leak-kinds: reachable
   fun:_Znwm
   obj:/usr/lib/x86_64-linux-gnu/libLLVM-9.so.1
   fun:__pthread_once_slow
   fun:_ZN4llvm34initializeMachineDominatorTreePassERNS_12PassRegistryE
   obj:/usr/lib/x86_64-linux-gnu/libLLVM-9.so.1
   fun:__pthread_once_slow
   fun:_ZN4llvm29initializeMachineLoopInfoPassERNS_12PassRegistryE
   obj:/usr/lib/x86_64-linux-gnu/libLLVM-9.so.1
   fun:__pthread_once_slow
   fun:_ZN4llvm39initializeMachineBlockFrequencyInfoPassERNS_12PassRegistryE
   obj:/usr/lib/x86_64-linux-gnu/libLLVM-9.so.1
   fun:__pthread_once_slow
}
{
   <insert_a_suppression_name_here>
   Memcheck:Leak
   match-leak-kinds: reachable
   fun:_Znwm
   obj:/usr/lib/x86_64-linux-gnu/libLLVM-9.so.1
   fun:__pthread_once_slow
   fun:_ZN4llvm29initializeMachineLoopInfoPassERNS_12PassRegistryE
   obj:/usr/lib/x86_64-linux-gnu/libLLVM-9.so.1
   fun:__pthread_once_slow
   fun:_ZN4llvm39initializeMachineBlockFrequencyInfoPassERNS_12PassRegistryE
   obj:/usr/lib/x86_64-linux-gnu/libLLVM-9.so.1
   fun:__pthread_once_slow
   fun:_ZN4llvm27initializeRegBankSelectPassERNS_12PassRegistryE
   fun:_ZN4llvm20initializeGlobalISelERNS_12PassRegistryE
   fun:LLVMInitializeAMDGPUTarget
}
{
   <insert_a_suppression_name_here>
   Memcheck:Leak
   match-leak-kinds: reachable
   fun:_Znwm
   obj:/usr/lib/x86_64-linux-gnu/libLLVM-9.so.1
   fun:__pthread_once_slow
   fun:_ZN4llvm39initializeMachineBlockFrequencyInfoPassERNS_12PassRegistryE
   obj:/usr/lib/x86_64-linux-gnu/libLLVM-9.so.1
   fun:__pthread_once_slow
   fun:_ZN4llvm27initializeRegBankSelectPassERNS_12PassRegistryE
   fun:_ZN4llvm20initializeGlobalISelERNS_12PassRegistryE
   fun:LLVMInitializeAMDGPUTarget
   obj:/usr/lib/x86_64-linux-gnu/dri/radeonsi_dri.so
   fun:__pthread_once_slow
   obj:/usr/lib/x86_64-linux-gnu/dri/radeonsi_dri.so
}
{
   <insert_a_suppression_name_here>
   Memcheck:Leak
   match-leak-kinds: reachable
   fun:_Znwm
   obj:/usr/lib/x86_64-linux-gnu/libLLVM-9.so.1
   fun:__pthread_once_slow
   fun:_ZN4llvm27initializeRegBankSelectPassERNS_12PassRegistryE
   fun:_ZN4llvm20initializeGlobalISelERNS_12PassRegistryE
   fun:LLVMInitializeAMDGPUTarget
   obj:/usr/lib/x86_64-linux-gnu/dri/radeonsi_dri.so
   fun:__pthread_once_slow
   obj:/usr/lib/x86_64-linux-gnu/dri/radeonsi_dri.so
   obj:/usr/lib/x86_64-linux-gnu/dri/radeonsi_dri.so
   obj:/usr/lib/x86_64-linux-gnu/dri/radeonsi_dri.so
   obj:/usr/lib/x86_64-linux-gnu/dri/radeonsi_dri.so
}
{
   <insert_a_suppression_name_here>
   Memcheck:Leak
   match-leak-kinds: reachable
   fun:_Znwm
   obj:/usr/lib/x86_64-linux-gnu/libLLVM-9.so.1
   fun:__pthread_once_slow
   fun:_ZN4llvm31initializeInstructionSelectPassERNS_12PassRegistryE
   fun:LLVMInitializeAMDGPUTarget
   obj:/usr/lib/x86_64-linux-gnu/dri/radeonsi_dri.so
   fun:__pthread_once_slow
   obj:/usr/lib/x86_64-linux-gnu/dri/radeonsi_dri.so
   obj:/usr/lib/x86_64-linux-gnu/dri/radeonsi_dri.so
   obj:/usr/lib/x86_64-linux-gnu/dri/radeonsi_dri.so
   obj:/usr/lib/x86_64-linux-gnu/dri/radeonsi_dri.so
   fun:start_thread
}
{
   <insert_a_suppression_name_here>
   Memcheck:Leak
   match-leak-kinds: reachable
   fun:_Znwm
   obj:/usr/lib/x86_64-linux-gnu/libLLVM-9.so.1
   fun:__pthread_once_slow
   fun:_ZN4llvm37initializeAMDGPUArgumentUsageInfoPassERNS_12PassRegistryE
   obj:/usr/lib/x86_64-linux-gnu/libLLVM-9.so.1
   fun:__pthread_once_slow
   fun:_ZN4llvm32initializeAMDGPUDAGToDAGISelPassERNS_12PassRegistryE
   fun:LLVMInitializeAMDGPUTarget
   obj:/usr/lib/x86_64-linux-gnu/dri/radeonsi_dri.so
   fun:__pthread_once_slow
   obj:/usr/lib/x86_64-linux-gnu/dri/radeonsi_dri.so
   obj:/usr/lib/x86_64-linux-gnu/dri/radeonsi_dri.so
}
{
   <insert_a_suppression_name_here>
   Memcheck:Leak
   match-leak-kinds: reachable
   fun:_Znwm
   obj:/usr/lib/x86_64-linux-gnu/libLLVM-9.so.1
   fun:__pthread_once_slow
   fun:_ZN4llvm36initializeAMDGPUPerfHintAnalysisPassERNS_12PassRegistryE
   obj:/usr/lib/x86_64-linux-gnu/libLLVM-9.so.1
   fun:__pthread_once_slow
   fun:_ZN4llvm32initializeAMDGPUDAGToDAGISelPassERNS_12PassRegistryE
   fun:LLVMInitializeAMDGPUTarget
   obj:/usr/lib/x86_64-linux-gnu/dri/radeonsi_dri.so
   fun:__pthread_once_slow
   obj:/usr/lib/x86_64-linux-gnu/dri/radeonsi_dri.so
   obj:/usr/lib/x86_64-linux-gnu/dri/radeonsi_dri.so
}
{
   <insert_a_suppression_name_here>
   Memcheck:Leak
   match-leak-kinds: reachable
   fun:_Znwm
   obj:/usr/lib/x86_64-linux-gnu/libLLVM-9.so.1
   fun:__pthread_once_slow
   fun:_ZN4llvm38initializeDominatorTreeWrapperPassPassERNS_12PassRegistryE
   obj:/usr/lib/x86_64-linux-gnu/libLLVM-9.so.1
   fun:__pthread_once_slow
   fun:_ZN4llvm38initializeLegacyDivergenceAnalysisPassERNS_12PassRegistryE
   obj:/usr/lib/x86_64-linux-gnu/libLLVM-9.so.1
   fun:__pthread_once_slow
   fun:_ZN4llvm32initializeAMDGPUDAGToDAGISelPassERNS_12PassRegistryE
   fun:LLVMInitializeAMDGPUTarget
   obj:/usr/lib/x86_64-linux-gnu/dri/radeonsi_dri.so
}
{
   <insert_a_suppression_name_here>
   Memcheck:Leak
   match-leak-kinds: reachable
   fun:_Znwm
   obj:/usr/lib/x86_64-linux-gnu/libLLVM-9.so.1
   fun:__pthread_once_slow
   fun:_ZN4llvm42initializePostDominatorTreeWrapperPassPassERNS_12PassRegistryE
   obj:/usr/lib/x86_64-linux-gnu/libLLVM-9.so.1
   fun:__pthread_once_slow
   fun:_ZN4llvm38initializeLegacyDivergenceAnalysisPassERNS_12PassRegistryE
   obj:/usr/lib/x86_64-linux-gnu/libLLVM-9.so.1
   fun:__pthread_once_slow
   fun:_ZN4llvm32initializeAMDGPUDAGToDAGISelPassERNS_12PassRegistryE
   fun:LLVMInitializeAMDGPUTarget
   obj:/usr/lib/x86_64-linux-gnu/dri/radeonsi_dri.so
}
{
   <insert_a_suppression_name_here>
   Memcheck:Leak
   match-leak-kinds: reachable
   fun:_Znwm
   obj:/usr/lib/x86_64-linux-gnu/libLLVM-9.so.1
   fun:__pthread_once_slow
   fun:_ZN4llvm33initializeLoopInfoWrapperPassPassERNS_12PassRegistryE
   obj:/usr/lib/x86_64-linux-gnu/libLLVM-9.so.1
   fun:__pthread_once_slow
   fun:_ZN4llvm38initializeLegacyDivergenceAnalysisPassERNS_12PassRegistryE
   obj:/usr/lib/x86_64-linux-gnu/libLLVM-9.so.1
   fun:__pthread_once_slow
   fun:_ZN4llvm32initializeAMDGPUDAGToDAGISelPassERNS_12PassRegistryE
   fun:LLVMInitializeAMDGPUTarget
   obj:/usr/lib/x86_64-linux-gnu/dri/radeonsi_dri.so
}
{
   <insert_a_suppression_name_here>
   Memcheck:Leak
   match-leak-kinds: reachable
   fun:_Znwm
   obj:/usr/lib/x86_64-linux-gnu/libLLVM-9.so.1
   fun:__pthread_once_slow
   fun:_ZN4llvm38initializeLegacyDivergenceAnalysisPassERNS_12PassRegistryE
   obj:/usr/lib/x86_64-linux-gnu/libLLVM-9.so.1
   fun:__pthread_once_slow
   fun:_ZN4llvm32initializeAMDGPUDAGToDAGISelPassERNS_12PassRegistryE
   fun:LLVMInitializeAMDGPUTarget
   obj:/usr/lib/x86_64-linux-gnu/dri/radeonsi_dri.so
   fun:__pthread_once_slow
   obj:/usr/lib/x86_64-linux-gnu/dri/radeonsi_dri.so
   obj:/usr/lib/x86_64-linux-gnu/dri/radeonsi_dri.so
}
{
   <insert_a_suppression_name_here>
   Memcheck:Leak
   match-leak-kinds: reachable
   fun:_Znwm
   obj:/usr/lib/x86_64-linux-gnu/libLLVM-9.so.1
   fun:__pthread_once_slow
   fun:_ZN4llvm32initializeAMDGPUDAGToDAGISelPassERNS_12PassRegistryE
   fun:LLVMInitializeAMDGPUTarget
   obj:/usr/lib/x86_64-linux-gnu/dri/radeonsi_dri.so
   fun:__pthread_once_slow
   obj:/usr/lib/x86_64-linux-gnu/dri/radeonsi_dri.so
   obj:/usr/lib/x86_64-linux-gnu/dri/radeonsi_dri.so
   obj:/usr/lib/x86_64-linux-gnu/dri/radeonsi_dri.so
   obj:/usr/lib/x86_64-linux-gnu/dri/radeonsi_dri.so
   fun:start_thread
}
{
   <insert_a_suppression_name_here>
   Memcheck:Leak
   match-leak-kinds: reachable
   fun:_Znwm
   obj:/usr/lib/x86_64-linux-gnu/libLLVM-9.so.1
   fun:__pthread_once_slow
   fun:_ZN4llvm27initializeGCNDPPCombinePassERNS_12PassRegistryE
   fun:LLVMInitializeAMDGPUTarget
   obj:/usr/lib/x86_64-linux-gnu/dri/radeonsi_dri.so
   fun:__pthread_once_slow
   obj:/usr/lib/x86_64-linux-gnu/dri/radeonsi_dri.so
   obj:/usr/lib/x86_64-linux-gnu/dri/radeonsi_dri.so
   obj:/usr/lib/x86_64-linux-gnu/dri/radeonsi_dri.so
   obj:/usr/lib/x86_64-linux-gnu/dri/radeonsi_dri.so
   fun:start_thread
}
{
   <insert_a_suppression_name_here>
   Memcheck:Leak
   match-leak-kinds: reachable
   fun:_Znwm
   obj:/usr/lib/x86_64-linux-gnu/libLLVM-9.so.1
   fun:__pthread_once_slow
   fun:_ZN4llvm38initializeMachinePostDominatorTreePassERNS_12PassRegistryE
   obj:/usr/lib/x86_64-linux-gnu/libLLVM-9.so.1
   fun:__pthread_once_slow
   fun:_ZN4llvm29initializeSILowerI1CopiesPassERNS_12PassRegistryE
   fun:LLVMInitializeAMDGPUTarget
   obj:/usr/lib/x86_64-linux-gnu/dri/radeonsi_dri.so
   fun:__pthread_once_slow
   obj:/usr/lib/x86_64-linux-gnu/dri/radeonsi_dri.so
   obj:/usr/lib/x86_64-linux-gnu/dri/radeonsi_dri.so
}
{
   <insert_a_suppression_name_here>
   Memcheck:Leak
   match-leak-kinds: reachable
   fun:_Znwm
   obj:/usr/lib/x86_64-linux-gnu/libLLVM-9.so.1
   fun:__pthread_once_slow
   fun:_ZN4llvm29initializeSILowerI1CopiesPassERNS_12PassRegistryE
   fun:LLVMInitializeAMDGPUTarget
   obj:/usr/lib/x86_64-linux-gnu/dri/radeonsi_dri.so
   fun:__pthread_once_slow
   obj:/usr/lib/x86_64-linux-gnu/dri/radeonsi_dri.so
   obj:/usr/lib/x86_64-linux-gnu/dri/radeonsi_dri.so
   obj:/usr/lib/x86_64-linux-gnu/dri/radeonsi_dri.so
   obj:/usr/lib/x86_64-linux-gnu/dri/radeonsi_dri.so
   fun:start_thread
}
{
   <insert_a_suppression_name_here>
   Memcheck:Leak
   match-leak-kinds: reachable
   fun:_Znwm
   obj:/usr/lib/x86_64-linux-gnu/libLLVM-9.so.1
   fun:__pthread_once_slow
   fun:_ZN4llvm24initializeVirtRegMapPassERNS_12PassRegistryE
   obj:/usr/lib/x86_64-linux-gnu/libLLVM-9.so.1
   fun:__pthread_once_slow
   fun:_ZN4llvm31initializeSILowerSGPRSpillsPassERNS_12PassRegistryE
   fun:LLVMInitializeAMDGPUTarget
   obj:/usr/lib/x86_64-linux-gnu/dri/radeonsi_dri.so
   fun:__pthread_once_slow
   obj:/usr/lib/x86_64-linux-gnu/dri/radeonsi_dri.so
   obj:/usr/lib/x86_64-linux-gnu/dri/radeonsi_dri.so
}
{
   <insert_a_suppression_name_here>
   Memcheck:Leak
   match-leak-kinds: reachable
   fun:_Znwm
   obj:/usr/lib/x86_64-linux-gnu/libLLVM-9.so.1
   fun:__pthread_once_slow
   fun:_ZN4llvm31initializeSILowerSGPRSpillsPassERNS_12PassRegistryE
   fun:LLVMInitializeAMDGPUTarget
   obj:/usr/lib/x86_64-linux-gnu/dri/radeonsi_dri.so
   fun:__pthread_once_slow
   obj:/usr/lib/x86_64-linux-gnu/dri/radeonsi_dri.so
   obj:/usr/lib/x86_64-linux-gnu/dri/radeonsi_dri.so
   obj:/usr/lib/x86_64-linux-gnu/dri/radeonsi_dri.so
   obj:/usr/lib/x86_64-linux-gnu/dri/radeonsi_dri.so
   fun:start_thread
}
{
   <insert_a_suppression_name_here>
   Memcheck:Leak
   match-leak-kinds: reachable
   fun:_Znwm
   obj:/usr/lib/x86_64-linux-gnu/libLLVM-9.so.1
   fun:__pthread_once_slow
   fun:_ZN4llvm29initializeSIFixSGPRCopiesPassERNS_12PassRegistryE
   fun:LLVMInitializeAMDGPUTarget
   obj:/usr/lib/x86_64-linux-gnu/dri/radeonsi_dri.so
   fun:__pthread_once_slow
   obj:/usr/lib/x86_64-linux-gnu/dri/radeonsi_dri.so
   obj:/usr/lib/x86_64-linux-gnu/dri/radeonsi_dri.so
   obj:/usr/lib/x86_64-linux-gnu/dri/radeonsi_dri.so
   obj:/usr/lib/x86_64-linux-gnu/dri/radeonsi_dri.so
   fun:start_thread
}
{
   <insert_a_suppression_name_here>
   Memcheck:Leak
   match-leak-kinds: reachable
   fun:_Znwm
   obj:/usr/lib/x86_64-linux-gnu/libLLVM-9.so.1
   fun:__pthread_once_slow
   fun:_ZN4llvm29initializeSIFixVGPRCopiesPassERNS_12PassRegistryE
   fun:LLVMInitializeAMDGPUTarget
   obj:/usr/lib/x86_64-linux-gnu/dri/radeonsi_dri.so
   fun:__pthread_once_slow
   obj:/usr/lib/x86_64-linux-gnu/dri/radeonsi_dri.so
   obj:/usr/lib/x86_64-linux-gnu/dri/radeonsi_dri.so
   obj:/usr/lib/x86_64-linux-gnu/dri/radeonsi_dri.so
   obj:/usr/lib/x86_64-linux-gnu/dri/radeonsi_dri.so
   fun:start_thread
}
{
   <insert_a_suppression_name_here>
   Memcheck:Leak
   match-leak-kinds: reachable
   fun:_Znwm
   obj:/usr/lib/x86_64-linux-gnu/libLLVM-9.so.1
   fun:__pthread_once_slow
   fun:_ZN4llvm31initializeSIFixupVectorISelPassERNS_12PassRegistryE
   fun:LLVMInitializeAMDGPUTarget
   obj:/usr/lib/x86_64-linux-gnu/dri/radeonsi_dri.so
   fun:__pthread_once_slow
   obj:/usr/lib/x86_64-linux-gnu/dri/radeonsi_dri.so
   obj:/usr/lib/x86_64-linux-gnu/dri/radeonsi_dri.so
   obj:/usr/lib/x86_64-linux-gnu/dri/radeonsi_dri.so
   obj:/usr/lib/x86_64-linux-gnu/dri/radeonsi_dri.so
   fun:start_thread
}
{
   <insert_a_suppression_name_here>
   Memcheck:Leak
   match-leak-kinds: reachable
   fun:_Znwm
   obj:/usr/lib/x86_64-linux-gnu/libLLVM-9.so.1
   fun:__pthread_once_slow
   fun:_ZN4llvm28initializeSIFoldOperandsPassERNS_12PassRegistryE
   fun:LLVMInitializeAMDGPUTarget
   obj:/usr/lib/x86_64-linux-gnu/dri/radeonsi_dri.so
   fun:__pthread_once_slow
   obj:/usr/lib/x86_64-linux-gnu/dri/radeonsi_dri.so
   obj:/usr/lib/x86_64-linux-gnu/dri/radeonsi_dri.so
   obj:/usr/lib/x86_64-linux-gnu/dri/radeonsi_dri.so
   obj:/usr/lib/x86_64-linux-gnu/dri/radeonsi_dri.so
   fun:start_thread
}
{
   <insert_a_suppression_name_here>
   Memcheck:Leak
   match-leak-kinds: reachable
   fun:_Znwm
   obj:/usr/lib/x86_64-linux-gnu/libLLVM-9.so.1
   fun:__pthread_once_slow
   fun:_ZN4llvm28initializeSIPeepholeSDWAPassERNS_12PassRegistryE
   fun:LLVMInitializeAMDGPUTarget
   obj:/usr/lib/x86_64-linux-gnu/dri/radeonsi_dri.so
   fun:__pthread_once_slow
   obj:/usr/lib/x86_64-linux-gnu/dri/radeonsi_dri.so
   obj:/usr/lib/x86_64-linux-gnu/dri/radeonsi_dri.so
   obj:/usr/lib/x86_64-linux-gnu/dri/radeonsi_dri.so
   obj:/usr/lib/x86_64-linux-gnu/dri/radeonsi_dri.so
   fun:start_thread
}
{
   <insert_a_suppression_name_here>
   Memcheck:Leak
   match-leak-kinds: reachable
   fun:_Znwm
   obj:/usr/lib/x86_64-linux-gnu/libLLVM-9.so.1
   fun:__pthread_once_slow
   fun:_ZN4llvm34initializeSIShrinkInstructionsPassERNS_12PassRegistryE
   fun:LLVMInitializeAMDGPUTarget
   obj:/usr/lib/x86_64-linux-gnu/dri/radeonsi_dri.so
   fun:__pthread_once_slow
   obj:/usr/lib/x86_64-linux-gnu/dri/radeonsi_dri.so
   obj:/usr/lib/x86_64-linux-gnu/dri/radeonsi_dri.so
   obj:/usr/lib/x86_64-linux-gnu/dri/radeonsi_dri.so
   obj:/usr/lib/x86_64-linux-gnu/dri/radeonsi_dri.so
   fun:start_thread
}
{
   <insert_a_suppression_name_here>
   Memcheck:Leak
   match-leak-kinds: reachable
   fun:_Znwm
   obj:/usr/lib/x86_64-linux-gnu/libLLVM-9.so.1
   fun:__pthread_once_slow
   fun:_ZN4llvm36initializeAssumptionCacheTrackerPassERNS_12PassRegistryE
   obj:/usr/lib/x86_64-linux-gnu/libLLVM-9.so.1
   fun:__pthread_once_slow
   fun:_ZN4llvm32initializeBasicAAWrapperPassPassERNS_12PassRegistryE
   obj:/usr/lib/x86_64-linux-gnu/libLLVM-9.so.1
   fun:__pthread_once_slow
   fun:_ZN4llvm34initializeAAResultsWrapperPassPassERNS_12PassRegistryE
   obj:/usr/lib/x86_64-linux-gnu/libLLVM-9.so.1
   fun:__pthread_once_slow
}
{
   <insert_a_suppression_name_here>
   Memcheck:Leak
   match-leak-kinds: reachable
   fun:_Znwm
   obj:/usr/lib/x86_64-linux-gnu/libLLVM-9.so.1
   fun:__pthread_once_slow
   fun:_ZN4llvm42initializeTargetLibraryInfoWrapperPassPassERNS_12PassRegistryE
   obj:/usr/lib/x86_64-linux-gnu/libLLVM-9.so.1
   fun:__pthread_once_slow
   fun:_ZN4llvm32initializeBasicAAWrapperPassPassERNS_12PassRegistryE
   obj:/usr/lib/x86_64-linux-gnu/libLLVM-9.so.1
   fun:__pthread_once_slow
   fun:_ZN4llvm34initializeAAResultsWrapperPassPassERNS_12PassRegistryE
   obj:/usr/lib/x86_64-linux-gnu/libLLVM-9.so.1
   fun:__pthread_once_slow
}
{
   <insert_a_suppression_name_here>
   Memcheck:Leak
   match-leak-kinds: reachable
   fun:_Znwm
   obj:/usr/lib/x86_64-linux-gnu/libLLVM-9.so.1
   fun:__pthread_once_slow
   fun:_ZN4llvm32initializeBasicAAWrapperPassPassERNS_12PassRegistryE
   obj:/usr/lib/x86_64-linux-gnu/libLLVM-9.so.1
   fun:__pthread_once_slow
   fun:_ZN4llvm34initializeAAResultsWrapperPassPassERNS_12PassRegistryE
   obj:/usr/lib/x86_64-linux-gnu/libLLVM-9.so.1
   fun:__pthread_once_slow
   fun:_ZN4llvm27initializeLiveIntervalsPassERNS_12PassRegistryE
   obj:/usr/lib/x86_64-linux-gnu/libLLVM-9.so.1
   fun:__pthread_once_slow
}
{
   <insert_a_suppression_name_here>
   Memcheck:Leak
   match-leak-kinds: reachable
   fun:_Znwm
   obj:/usr/lib/x86_64-linux-gnu/libLLVM-9.so.1
   fun:__pthread_once_slow
   fun:_ZN4llvm36initializeCFLAndersAAWrapperPassPassERNS_12PassRegistryE
   obj:/usr/lib/x86_64-linux-gnu/libLLVM-9.so.1
   fun:__pthread_once_slow
   fun:_ZN4llvm34initializeAAResultsWrapperPassPassERNS_12PassRegistryE
   obj:/usr/lib/x86_64-linux-gnu/libLLVM-9.so.1
   fun:__pthread_once_slow
   fun:_ZN4llvm27initializeLiveIntervalsPassERNS_12PassRegistryE
   obj:/usr/lib/x86_64-linux-gnu/libLLVM-9.so.1
   fun:__pthread_once_slow
}
{
   <insert_a_suppression_name_here>
   Memcheck:Leak
   match-leak-kinds: reachable
   fun:_Znwm
   obj:/usr/lib/x86_64-linux-gnu/libLLVM-9.so.1
   fun:__pthread_once_slow
   fun:_ZN4llvm36initializeCFLSteensAAWrapperPassPassERNS_12PassRegistryE
   obj:/usr/lib/x86_64-linux-gnu/libLLVM-9.so.1
   fun:__pthread_once_slow
   fun:_ZN4llvm34initializeAAResultsWrapperPassPassERNS_12PassRegistryE
   obj:/usr/lib/x86_64-linux-gnu/libLLVM-9.so.1
   fun:__pthread_once_slow
   fun:_ZN4llvm27initializeLiveIntervalsPassERNS_12PassRegistryE
   obj:/usr/lib/x86_64-linux-gnu/libLLVM-9.so.1
   fun:__pthread_once_slow
}
{
   <insert_a_suppression_name_here>
   Memcheck:Leak
   match-leak-kinds: reachable
   fun:_Znwm
   obj:/usr/lib/x86_64-linux-gnu/libLLVM-9.so.1
   fun:__pthread_once_slow
   obj:/usr/lib/x86_64-linux-gnu/libLLVM-9.so.1
   fun:__pthread_once_slow
   fun:_ZN4llvm34initializeAAResultsWrapperPassPassERNS_12PassRegistryE
   obj:/usr/lib/x86_64-linux-gnu/libLLVM-9.so.1
   fun:__pthread_once_slow
   fun:_ZN4llvm27initializeLiveIntervalsPassERNS_12PassRegistryE
   obj:/usr/lib/x86_64-linux-gnu/libLLVM-9.so.1
   fun:__pthread_once_slow
   fun:_ZN4llvm40initializeSIOptimizeExecMaskingPreRAPassERNS_12PassRegistryE
}
{
   <insert_a_suppression_name_here>
   Memcheck:Leak
   match-leak-kinds: reachable
   fun:_Znwm
   obj:/usr/lib/x86_64-linux-gnu/libLLVM-9.so.1
   fun:__pthread_once_slow
   fun:_ZN4llvm34initializeCallGraphWrapperPassPassERNS_12PassRegistryE
   obj:/usr/lib/x86_64-linux-gnu/libLLVM-9.so.1
   fun:__pthread_once_slow
   fun:_ZN4llvm34initializeGlobalsAAWrapperPassPassERNS_12PassRegistryE
   obj:/usr/lib/x86_64-linux-gnu/libLLVM-9.so.1
   fun:__pthread_once_slow
   fun:_ZN4llvm34initializeAAResultsWrapperPassPassERNS_12PassRegistryE
   obj:/usr/lib/x86_64-linux-gnu/libLLVM-9.so.1
   fun:__pthread_once_slow
}
{
   <insert_a_suppression_name_here>
   Memcheck:Leak
   match-leak-kinds: reachable
   fun:_Znwm
   obj:/usr/lib/x86_64-linux-gnu/libLLVM-9.so.1
   fun:__pthread_once_slow
   fun:_ZN4llvm34initializeGlobalsAAWrapperPassPassERNS_12PassRegistryE
   obj:/usr/lib/x86_64-linux-gnu/libLLVM-9.so.1
   fun:__pthread_once_slow
   fun:_ZN4llvm34initializeAAResultsWrapperPassPassERNS_12PassRegistryE
   obj:/usr/lib/x86_64-linux-gnu/libLLVM-9.so.1
   fun:__pthread_once_slow
   fun:_ZN4llvm27initializeLiveIntervalsPassERNS_12PassRegistryE
   obj:/usr/lib/x86_64-linux-gnu/libLLVM-9.so.1
   fun:__pthread_once_slow
}
{
   <insert_a_suppression_name_here>
   Memcheck:Leak
   match-leak-kinds: reachable
   fun:_Znwm
   obj:/usr/lib/x86_64-linux-gnu/libLLVM-9.so.1
   fun:__pthread_once_slow
   fun:_ZN4llvm34initializeObjCARCAAWrapperPassPassERNS_12PassRegistryE
   obj:/usr/lib/x86_64-linux-gnu/libLLVM-9.so.1
   fun:__pthread_once_slow
   fun:_ZN4llvm34initializeAAResultsWrapperPassPassERNS_12PassRegistryE
   obj:/usr/lib/x86_64-linux-gnu/libLLVM-9.so.1
   fun:__pthread_once_slow
   fun:_ZN4llvm27initializeLiveIntervalsPassERNS_12PassRegistryE
   obj:/usr/lib/x86_64-linux-gnu/libLLVM-9.so.1
   fun:__pthread_once_slow
}
{
   <insert_a_suppression_name_here>
   Memcheck:Leak
   match-leak-kinds: reachable
   fun:_Znwm
   obj:/usr/lib/x86_64-linux-gnu/libLLVM-9.so.1
   fun:__pthread_once_slow
   fun:_ZN4llvm40initializeScalarEvolutionWrapperPassPassERNS_12PassRegistryE
   obj:/usr/lib/x86_64-linux-gnu/libLLVM-9.so.1
   fun:__pthread_once_slow
   fun:_ZN4llvm31initializeSCEVAAWrapperPassPassERNS_12PassRegistryE
   obj:/usr/lib/x86_64-linux-gnu/libLLVM-9.so.1
   fun:__pthread_once_slow
   fun:_ZN4llvm34initializeAAResultsWrapperPassPassERNS_12PassRegistryE
   obj:/usr/lib/x86_64-linux-gnu/libLLVM-9.so.1
   fun:__pthread_once_slow
}
{
   <insert_a_suppression_name_here>
   Memcheck:Leak
   match-leak-kinds: reachable
   fun:_Znwm
   obj:/usr/lib/x86_64-linux-gnu/libLLVM-9.so.1
   fun:__pthread_once_slow
   fun:_ZN4llvm31initializeSCEVAAWrapperPassPassERNS_12PassRegistryE
   obj:/usr/lib/x86_64-linux-gnu/libLLVM-9.so.1
   fun:__pthread_once_slow
   fun:_ZN4llvm34initializeAAResultsWrapperPassPassERNS_12PassRegistryE
   obj:/usr/lib/x86_64-linux-gnu/libLLVM-9.so.1
   fun:__pthread_once_slow
   fun:_ZN4llvm27initializeLiveIntervalsPassERNS_12PassRegistryE
   obj:/usr/lib/x86_64-linux-gnu/libLLVM-9.so.1
   fun:__pthread_once_slow
}
{
   <insert_a_suppression_name_here>
   Memcheck:Leak
   match-leak-kinds: reachable
   fun:_Znwm
   obj:/usr/lib/x86_64-linux-gnu/libLLVM-9.so.1
   fun:__pthread_once_slow
   fun:_ZN4llvm40initializeScopedNoAliasAAWrapperPassPassERNS_12PassRegistryE
   obj:/usr/lib/x86_64-linux-gnu/libLLVM-9.so.1
   fun:__pthread_once_slow
   fun:_ZN4llvm34initializeAAResultsWrapperPassPassERNS_12PassRegistryE
   obj:/usr/lib/x86_64-linux-gnu/libLLVM-9.so.1
   fun:__pthread_once_slow
   fun:_ZN4llvm27initializeLiveIntervalsPassERNS_12PassRegistryE
   obj:/usr/lib/x86_64-linux-gnu/libLLVM-9.so.1
   fun:__pthread_once_slow
}
{
   <insert_a_suppression_name_here>
   Memcheck:Leak
   match-leak-kinds: reachable
   fun:_Znwm
   obj:/usr/lib/x86_64-linux-gnu/libLLVM-9.so.1
   fun:__pthread_once_slow
   fun:_ZN4llvm36initializeTypeBasedAAWrapperPassPassERNS_12PassRegistryE
   obj:/usr/lib/x86_64-linux-gnu/libLLVM-9.so.1
   fun:__pthread_once_slow
   fun:_ZN4llvm34initializeAAResultsWrapperPassPassERNS_12PassRegistryE
   obj:/usr/lib/x86_64-linux-gnu/libLLVM-9.so.1
   fun:__pthread_once_slow
   fun:_ZN4llvm27initializeLiveIntervalsPassERNS_12PassRegistryE
   obj:/usr/lib/x86_64-linux-gnu/libLLVM-9.so.1
   fun:__pthread_once_slow
}
{
   <insert_a_suppression_name_here>
   Memcheck:Leak
   match-leak-kinds: reachable
   fun:_Znwm
   obj:/usr/lib/x86_64-linux-gnu/libLLVM-9.so.1
   fun:__pthread_once_slow
   fun:_ZN4llvm34initializeAAResultsWrapperPassPassERNS_12PassRegistryE
   obj:/usr/lib/x86_64-linux-gnu/libLLVM-9.so.1
   fun:__pthread_once_slow
   fun:_ZN4llvm27initializeLiveIntervalsPassERNS_12PassRegistryE
   obj:/usr/lib/x86_64-linux-gnu/libLLVM-9.so.1
   fun:__pthread_once_slow
   fun:_ZN4llvm40initializeSIOptimizeExecMaskingPreRAPassERNS_12PassRegistryE
   fun:LLVMInitializeAMDGPUTarget
   obj:/usr/lib/x86_64-linux-gnu/dri/radeonsi_dri.so
}
{
   <insert_a_suppression_name_here>
   Memcheck:Leak
   match-leak-kinds: reachable
   fun:_Znwm
   obj:/usr/lib/x86_64-linux-gnu/libLLVM-9.so.1
   fun:__pthread_once_slow
   fun:_ZN4llvm25initializeSlotIndexesPassERNS_12PassRegistryE
   obj:/usr/lib/x86_64-linux-gnu/libLLVM-9.so.1
   fun:__pthread_once_slow
   fun:_ZN4llvm27initializeLiveIntervalsPassERNS_12PassRegistryE
   obj:/usr/lib/x86_64-linux-gnu/libLLVM-9.so.1
   fun:__pthread_once_slow
   fun:_ZN4llvm40initializeSIOptimizeExecMaskingPreRAPassERNS_12PassRegistryE
   fun:LLVMInitializeAMDGPUTarget
   obj:/usr/lib/x86_64-linux-gnu/dri/radeonsi_dri.so
}
{
   <insert_a_suppression_name_here>
   Memcheck:Leak
   match-leak-kinds: reachable
   fun:_Znwm
   obj:/usr/lib/x86_64-linux-gnu/libLLVM-9.so.1
   fun:__pthread_once_slow
   fun:_ZN4llvm27initializeLiveIntervalsPassERNS_12PassRegistryE
   obj:/usr/lib/x86_64-linux-gnu/libLLVM-9.so.1
   fun:__pthread_once_slow
   fun:_ZN4llvm40initializeSIOptimizeExecMaskingPreRAPassERNS_12PassRegistryE
   fun:LLVMInitializeAMDGPUTarget
   obj:/usr/lib/x86_64-linux-gnu/dri/radeonsi_dri.so
   fun:__pthread_once_slow
   obj:/usr/lib/x86_64-linux-gnu/dri/radeonsi_dri.so
   obj:/usr/lib/x86_64-linux-gnu/dri/radeonsi_dri.so
}
{
   <insert_a_suppression_name_here>
   Memcheck:Leak
   match-leak-kinds: reachable
   fun:_Znwm
   obj:/usr/lib/x86_64-linux-gnu/libLLVM-9.so.1
   fun:__pthread_once_slow
   fun:_ZN4llvm40initializeSIOptimizeExecMaskingPreRAPassERNS_12PassRegistryE
   fun:LLVMInitializeAMDGPUTarget
   obj:/usr/lib/x86_64-linux-gnu/dri/radeonsi_dri.so
   fun:__pthread_once_slow
   obj:/usr/lib/x86_64-linux-gnu/dri/radeonsi_dri.so
   obj:/usr/lib/x86_64-linux-gnu/dri/radeonsi_dri.so
   obj:/usr/lib/x86_64-linux-gnu/dri/radeonsi_dri.so
   obj:/usr/lib/x86_64-linux-gnu/dri/radeonsi_dri.so
   fun:start_thread
}
{
   <insert_a_suppression_name_here>
   Memcheck:Leak
   match-leak-kinds: reachable
   fun:_Znwm
   obj:/usr/lib/x86_64-linux-gnu/libLLVM-9.so.1
   fun:__pthread_once_slow
   fun:_ZN4llvm34initializeSILoadStoreOptimizerPassERNS_12PassRegistryE
   fun:LLVMInitializeAMDGPUTarget
   obj:/usr/lib/x86_64-linux-gnu/dri/radeonsi_dri.so
   fun:__pthread_once_slow
   obj:/usr/lib/x86_64-linux-gnu/dri/radeonsi_dri.so
   obj:/usr/lib/x86_64-linux-gnu/dri/radeonsi_dri.so
   obj:/usr/lib/x86_64-linux-gnu/dri/radeonsi_dri.so
   obj:/usr/lib/x86_64-linux-gnu/dri/radeonsi_dri.so
   fun:start_thread
}
{
   <insert_a_suppression_name_here>
   Memcheck:Leak
   match-leak-kinds: reachable
   fun:_Znwm
   obj:/usr/lib/x86_64-linux-gnu/libLLVM-9.so.1
   fun:__pthread_once_slow
   fun:_ZN4llvm39initializeAMDGPUFixFunctionBitcastsPassERNS_12PassRegistryE
   fun:LLVMInitializeAMDGPUTarget
   obj:/usr/lib/x86_64-linux-gnu/dri/radeonsi_dri.so
   fun:__pthread_once_slow
   obj:/usr/lib/x86_64-linux-gnu/dri/radeonsi_dri.so
   obj:/usr/lib/x86_64-linux-gnu/dri/radeonsi_dri.so
   obj:/usr/lib/x86_64-linux-gnu/dri/radeonsi_dri.so
   obj:/usr/lib/x86_64-linux-gnu/dri/radeonsi_dri.so
   fun:start_thread
}
{
   <insert_a_suppression_name_here>
   Memcheck:Leak
   match-leak-kinds: reachable
   fun:_Znwm
   obj:/usr/lib/x86_64-linux-gnu/libLLVM-9.so.1
   fun:__pthread_once_slow
   fun:_ZN4llvm32initializeAMDGPUAlwaysInlinePassERNS_12PassRegistryE
   fun:LLVMInitializeAMDGPUTarget
   obj:/usr/lib/x86_64-linux-gnu/dri/radeonsi_dri.so
   fun:__pthread_once_slow
   obj:/usr/lib/x86_64-linux-gnu/dri/radeonsi_dri.so
   obj:/usr/lib/x86_64-linux-gnu/dri/radeonsi_dri.so
   obj:/usr/lib/x86_64-linux-gnu/dri/radeonsi_dri.so
   obj:/usr/lib/x86_64-linux-gnu/dri/radeonsi_dri.so
   fun:start_thread
}
{
   <insert_a_suppression_name_here>
   Memcheck:Leak
   match-leak-kinds: reachable
   fun:_Znwm
   obj:/usr/lib/x86_64-linux-gnu/libLLVM-9.so.1
   fun:__pthread_once_slow
   fun:_ZN4llvm42initializeAMDGPUAnnotateKernelFeaturesPassERNS_12PassRegistryE
   fun:LLVMInitializeAMDGPUTarget
   obj:/usr/lib/x86_64-linux-gnu/dri/radeonsi_dri.so
   fun:__pthread_once_slow
   obj:/usr/lib/x86_64-linux-gnu/dri/radeonsi_dri.so
   obj:/usr/lib/x86_64-linux-gnu/dri/radeonsi_dri.so
   obj:/usr/lib/x86_64-linux-gnu/dri/radeonsi_dri.so
   obj:/usr/lib/x86_64-linux-gnu/dri/radeonsi_dri.so
   fun:start_thread
}
{
   <insert_a_suppression_name_here>
   Memcheck:Leak
   match-leak-kinds: reachable
   fun:_Znwm
   obj:/usr/lib/x86_64-linux-gnu/libLLVM-9.so.1
   fun:__pthread_once_slow
   fun:_ZN4llvm34initializePhiValuesWrapperPassPassERNS_12PassRegistryE
   obj:/usr/lib/x86_64-linux-gnu/libLLVM-9.so.1
   fun:__pthread_once_slow
   fun:_ZN4llvm41initializeMemoryDependenceWrapperPassPassERNS_12PassRegistryE
   obj:/usr/lib/x86_64-linux-gnu/libLLVM-9.so.1
   fun:__pthread_once_slow
   fun:_ZN4llvm41initializeAMDGPUAnnotateUniformValuesPassERNS_12PassRegistryE
   fun:LLVMInitializeAMDGPUTarget
   obj:/usr/lib/x86_64-linux-gnu/dri/radeonsi_dri.so
}
{
   <insert_a_suppression_name_here>
   Memcheck:Leak
   match-leak-kinds: reachable
   fun:_Znwm
   obj:/usr/lib/x86_64-linux-gnu/libLLVM-9.so.1
   fun:__pthread_once_slow
   fun:_ZN4llvm41initializeMemoryDependenceWrapperPassPassERNS_12PassRegistryE
   obj:/usr/lib/x86_64-linux-gnu/libLLVM-9.so.1
   fun:__pthread_once_slow
   fun:_ZN4llvm41initializeAMDGPUAnnotateUniformValuesPassERNS_12PassRegistryE
   fun:LLVMInitializeAMDGPUTarget
   obj:/usr/lib/x86_64-linux-gnu/dri/radeonsi_dri.so
   fun:__pthread_once_slow
   obj:/usr/lib/x86_64-linux-gnu/dri/radeonsi_dri.so
   obj:/usr/lib/x86_64-linux-gnu/dri/radeonsi_dri.so
}
{
   <insert_a_suppression_name_here>
   Memcheck:Leak
   match-leak-kinds: reachable
   fun:_Znwm
   obj:/usr/lib/x86_64-linux-gnu/libLLVM-9.so.1
   fun:__pthread_once_slow
   fun:_ZN4llvm41initializeAMDGPUAnnotateUniformValuesPassERNS_12PassRegistryE
   fun:LLVMInitializeAMDGPUTarget
   obj:/usr/lib/x86_64-linux-gnu/dri/radeonsi_dri.so
   fun:__pthread_once_slow
   obj:/usr/lib/x86_64-linux-gnu/dri/radeonsi_dri.so
   obj:/usr/lib/x86_64-linux-gnu/dri/radeonsi_dri.so
   obj:/usr/lib/x86_64-linux-gnu/dri/radeonsi_dri.so
   obj:/usr/lib/x86_64-linux-gnu/dri/radeonsi_dri.so
   fun:start_thread
}
{
   <insert_a_suppression_name_here>
   Memcheck:Leak
   match-leak-kinds: reachable
   fun:_Znwm
   obj:/usr/lib/x86_64-linux-gnu/libLLVM-9.so.1
   fun:__pthread_once_slow
   fun:_ZN4llvm35initializeAMDGPUAtomicOptimizerPassERNS_12PassRegistryE
   fun:LLVMInitializeAMDGPUTarget
   obj:/usr/lib/x86_64-linux-gnu/dri/radeonsi_dri.so
   fun:__pthread_once_slow
   obj:/usr/lib/x86_64-linux-gnu/dri/radeonsi_dri.so
   obj:/usr/lib/x86_64-linux-gnu/dri/radeonsi_dri.so
   obj:/usr/lib/x86_64-linux-gnu/dri/radeonsi_dri.so
   obj:/usr/lib/x86_64-linux-gnu/dri/radeonsi_dri.so
   fun:start_thread
}
{
   <insert_a_suppression_name_here>
   Memcheck:Leak
   match-leak-kinds: reachable
   fun:_Znwm
   obj:/usr/lib/x86_64-linux-gnu/libLLVM-9.so.1
   fun:__pthread_once_slow
   fun:_ZN4llvm40initializeAMDGPULowerKernelArgumentsPassERNS_12PassRegistryE
   fun:LLVMInitializeAMDGPUTarget
   obj:/usr/lib/x86_64-linux-gnu/dri/radeonsi_dri.so
   fun:__pthread_once_slow
   obj:/usr/lib/x86_64-linux-gnu/dri/radeonsi_dri.so
   obj:/usr/lib/x86_64-linux-gnu/dri/radeonsi_dri.so
   obj:/usr/lib/x86_64-linux-gnu/dri/radeonsi_dri.so
   obj:/usr/lib/x86_64-linux-gnu/dri/radeonsi_dri.so
   fun:start_thread
}
{
   <insert_a_suppression_name_here>
   Memcheck:Leak
   match-leak-kinds: reachable
   fun:_Znwm
   obj:/usr/lib/x86_64-linux-gnu/libLLVM-9.so.1
   fun:__pthread_once_slow
   fun:_ZN4llvm41initializeAMDGPULowerKernelAttributesPassERNS_12PassRegistryE
   fun:LLVMInitializeAMDGPUTarget
   obj:/usr/lib/x86_64-linux-gnu/dri/radeonsi_dri.so
   fun:__pthread_once_slow
   obj:/usr/lib/x86_64-linux-gnu/dri/radeonsi_dri.so
   obj:/usr/lib/x86_64-linux-gnu/dri/radeonsi_dri.so
   obj:/usr/lib/x86_64-linux-gnu/dri/radeonsi_dri.so
   obj:/usr/lib/x86_64-linux-gnu/dri/radeonsi_dri.so
   fun:start_thread
}
{
   <insert_a_suppression_name_here>
   Memcheck:Leak
   match-leak-kinds: reachable
   fun:_Znwm
   obj:/usr/lib/x86_64-linux-gnu/libLLVM-9.so.1
   fun:__pthread_once_slow
   fun:_ZN4llvm35initializeAMDGPULowerIntrinsicsPassERNS_12PassRegistryE
   fun:LLVMInitializeAMDGPUTarget
   obj:/usr/lib/x86_64-linux-gnu/dri/radeonsi_dri.so
   fun:__pthread_once_slow
   obj:/usr/lib/x86_64-linux-gnu/dri/radeonsi_dri.so
   obj:/usr/lib/x86_64-linux-gnu/dri/radeonsi_dri.so
   obj:/usr/lib/x86_64-linux-gnu/dri/radeonsi_dri.so
   obj:/usr/lib/x86_64-linux-gnu/dri/radeonsi_dri.so
   fun:start_thread
}
{
   <insert_a_suppression_name_here>
   Memcheck:Leak
   match-leak-kinds: reachable
   fun:_Znwm
   obj:/usr/lib/x86_64-linux-gnu/libLLVM-9.so.1
   fun:__pthread_once_slow
   fun:_ZN4llvm47initializeAMDGPUOpenCLEnqueuedBlockLoweringPassERNS_12PassRegistryE
   fun:LLVMInitializeAMDGPUTarget
   obj:/usr/lib/x86_64-linux-gnu/dri/radeonsi_dri.so
   fun:__pthread_once_slow
   obj:/usr/lib/x86_64-linux-gnu/dri/radeonsi_dri.so
   obj:/usr/lib/x86_64-linux-gnu/dri/radeonsi_dri.so
   obj:/usr/lib/x86_64-linux-gnu/dri/radeonsi_dri.so
   obj:/usr/lib/x86_64-linux-gnu/dri/radeonsi_dri.so
   fun:start_thread
}
{
   <insert_a_suppression_name_here>
   Memcheck:Leak
   match-leak-kinds: reachable
   fun:_Znwm
   obj:/usr/lib/x86_64-linux-gnu/libLLVM-9.so.1
   fun:__pthread_once_slow
   fun:_ZN4llvm33initializeAMDGPUPromoteAllocaPassERNS_12PassRegistryE
   fun:LLVMInitializeAMDGPUTarget
   obj:/usr/lib/x86_64-linux-gnu/dri/radeonsi_dri.so
   fun:__pthread_once_slow
   obj:/usr/lib/x86_64-linux-gnu/dri/radeonsi_dri.so
   obj:/usr/lib/x86_64-linux-gnu/dri/radeonsi_dri.so
   obj:/usr/lib/x86_64-linux-gnu/dri/radeonsi_dri.so
   obj:/usr/lib/x86_64-linux-gnu/dri/radeonsi_dri.so
   fun:start_thread
}
{
   <insert_a_suppression_name_here>
   Memcheck:Leak
   match-leak-kinds: reachable
   fun:_Znwm
   obj:/usr/lib/x86_64-linux-gnu/libLLVM-9.so.1
   fun:__pthread_once_slow
   fun:_ZN4llvm34initializeAMDGPUCodeGenPreparePassERNS_12PassRegistryE
   fun:LLVMInitializeAMDGPUTarget
   obj:/usr/lib/x86_64-linux-gnu/dri/radeonsi_dri.so
   fun:__pthread_once_slow
   obj:/usr/lib/x86_64-linux-gnu/dri/radeonsi_dri.so
   obj:/usr/lib/x86_64-linux-gnu/dri/radeonsi_dri.so
   obj:/usr/lib/x86_64-linux-gnu/dri/radeonsi_dri.so
   obj:/usr/lib/x86_64-linux-gnu/dri/radeonsi_dri.so
   fun:start_thread
}
{
   <insert_a_suppression_name_here>
   Memcheck:Leak
   match-leak-kinds: reachable
   fun:_Znwm
   obj:/usr/lib/x86_64-linux-gnu/libLLVM-9.so.1
   fun:__pthread_once_slow
   fun:_ZN4llvm44initializeAMDGPUPropagateAttributesEarlyPassERNS_12PassRegistryE
   fun:LLVMInitializeAMDGPUTarget
   obj:/usr/lib/x86_64-linux-gnu/dri/radeonsi_dri.so
   fun:__pthread_once_slow
   obj:/usr/lib/x86_64-linux-gnu/dri/radeonsi_dri.so
   obj:/usr/lib/x86_64-linux-gnu/dri/radeonsi_dri.so
   obj:/usr/lib/x86_64-linux-gnu/dri/radeonsi_dri.so
   obj:/usr/lib/x86_64-linux-gnu/dri/radeonsi_dri.so
   fun:start_thread
}
{
   <insert_a_suppression_name_here>
   Memcheck:Leak
   match-leak-kinds: reachable
   fun:_Znwm
   obj:/usr/lib/x86_64-linux-gnu/libLLVM-9.so.1
   fun:__pthread_once_slow
   fun:_ZN4llvm43initializeAMDGPUPropagateAttributesLatePassERNS_12PassRegistryE
   fun:LLVMInitializeAMDGPUTarget
   obj:/usr/lib/x86_64-linux-gnu/dri/radeonsi_dri.so
   fun:__pthread_once_slow
   obj:/usr/lib/x86_64-linux-gnu/dri/radeonsi_dri.so
   obj:/usr/lib/x86_64-linux-gnu/dri/radeonsi_dri.so
   obj:/usr/lib/x86_64-linux-gnu/dri/radeonsi_dri.so
   obj:/usr/lib/x86_64-linux-gnu/dri/radeonsi_dri.so
   fun:start_thread
}
{
   <insert_a_suppression_name_here>
   Memcheck:Leak
   match-leak-kinds: reachable
   fun:_Znwm
   obj:/usr/lib/x86_64-linux-gnu/libLLVM-9.so.1
   fun:__pthread_once_slow
   fun:_ZN4llvm39initializeAMDGPURewriteOutArgumentsPassERNS_12PassRegistryE
   fun:LLVMInitializeAMDGPUTarget
   obj:/usr/lib/x86_64-linux-gnu/dri/radeonsi_dri.so
   fun:__pthread_once_slow
   obj:/usr/lib/x86_64-linux-gnu/dri/radeonsi_dri.so
   obj:/usr/lib/x86_64-linux-gnu/dri/radeonsi_dri.so
   obj:/usr/lib/x86_64-linux-gnu/dri/radeonsi_dri.so
   obj:/usr/lib/x86_64-linux-gnu/dri/radeonsi_dri.so
   fun:start_thread
}
{
   <insert_a_suppression_name_here>
   Memcheck:Leak
   match-leak-kinds: reachable
   fun:_Znwm
   obj:/usr/lib/x86_64-linux-gnu/libLLVM-9.so.1
   fun:__pthread_once_slow
   fun:_ZN4llvm33initializeAMDGPUUnifyMetadataPassERNS_12PassRegistryE
   fun:LLVMInitializeAMDGPUTarget
   obj:/usr/lib/x86_64-linux-gnu/dri/radeonsi_dri.so
   fun:__pthread_once_slow
   obj:/usr/lib/x86_64-linux-gnu/dri/radeonsi_dri.so
   obj:/usr/lib/x86_64-linux-gnu/dri/radeonsi_dri.so
   obj:/usr/lib/x86_64-linux-gnu/dri/radeonsi_dri.so
   obj:/usr/lib/x86_64-linux-gnu/dri/radeonsi_dri.so
   fun:start_thread
}
{
   <insert_a_suppression_name_here>
   Memcheck:Leak
   match-leak-kinds: reachable
   fun:_Znwm
   obj:/usr/lib/x86_64-linux-gnu/libLLVM-9.so.1
   fun:__pthread_once_slow
   fun:_ZN4llvm35initializeSIAnnotateControlFlowPassERNS_12PassRegistryE
   fun:LLVMInitializeAMDGPUTarget
   obj:/usr/lib/x86_64-linux-gnu/dri/radeonsi_dri.so
   fun:__pthread_once_slow
   obj:/usr/lib/x86_64-linux-gnu/dri/radeonsi_dri.so
   obj:/usr/lib/x86_64-linux-gnu/dri/radeonsi_dri.so
   obj:/usr/lib/x86_64-linux-gnu/dri/radeonsi_dri.so
   obj:/usr/lib/x86_64-linux-gnu/dri/radeonsi_dri.so
   fun:start_thread
}
{
   <insert_a_suppression_name_here>
   Memcheck:Leak
   match-leak-kinds: reachable
   fun:_Znwm
   obj:/usr/lib/x86_64-linux-gnu/libLLVM-9.so.1
   fun:__pthread_once_slow
   fun:_ZN4llvm30initializeSIInsertWaitcntsPassERNS_12PassRegistryE
   fun:LLVMInitializeAMDGPUTarget
   obj:/usr/lib/x86_64-linux-gnu/dri/radeonsi_dri.so
   fun:__pthread_once_slow
   obj:/usr/lib/x86_64-linux-gnu/dri/radeonsi_dri.so
   obj:/usr/lib/x86_64-linux-gnu/dri/radeonsi_dri.so
   obj:/usr/lib/x86_64-linux-gnu/dri/radeonsi_dri.so
   obj:/usr/lib/x86_64-linux-gnu/dri/radeonsi_dri.so
   fun:start_thread
}
{
   <insert_a_suppression_name_here>
   Memcheck:Leak
   match-leak-kinds: reachable
   fun:_Znwm
   obj:/usr/lib/x86_64-linux-gnu/libLLVM-9.so.1
   fun:__pthread_once_slow
   fun:_ZN4llvm28initializeSIModeRegisterPassERNS_12PassRegistryE
   fun:LLVMInitializeAMDGPUTarget
   obj:/usr/lib/x86_64-linux-gnu/dri/radeonsi_dri.so
   fun:__pthread_once_slow
   obj:/usr/lib/x86_64-linux-gnu/dri/radeonsi_dri.so
   obj:/usr/lib/x86_64-linux-gnu/dri/radeonsi_dri.so
   obj:/usr/lib/x86_64-linux-gnu/dri/radeonsi_dri.so
   obj:/usr/lib/x86_64-linux-gnu/dri/radeonsi_dri.so
   fun:start_thread
}
{
   <insert_a_suppression_name_here>
   Memcheck:Leak
   match-leak-kinds: reachable
   fun:_Znwm
   obj:/usr/lib/x86_64-linux-gnu/libLLVM-9.so.1
   fun:__pthread_once_slow
   fun:_ZN4llvm29initializeSIWholeQuadModePassERNS_12PassRegistryE
   fun:LLVMInitializeAMDGPUTarget
   obj:/usr/lib/x86_64-linux-gnu/dri/radeonsi_dri.so
   fun:__pthread_once_slow
   obj:/usr/lib/x86_64-linux-gnu/dri/radeonsi_dri.so
   obj:/usr/lib/x86_64-linux-gnu/dri/radeonsi_dri.so
   obj:/usr/lib/x86_64-linux-gnu/dri/radeonsi_dri.so
   obj:/usr/lib/x86_64-linux-gnu/dri/radeonsi_dri.so
   fun:start_thread
}
{
   <insert_a_suppression_name_here>
   Memcheck:Leak
   match-leak-kinds: reachable
   fun:_Znwm
   obj:/usr/lib/x86_64-linux-gnu/libLLVM-9.so.1
   fun:__pthread_once_slow
   fun:_ZN4llvm32initializeSILowerControlFlowPassERNS_12PassRegistryE
   fun:LLVMInitializeAMDGPUTarget
   obj:/usr/lib/x86_64-linux-gnu/dri/radeonsi_dri.so
   fun:__pthread_once_slow
   obj:/usr/lib/x86_64-linux-gnu/dri/radeonsi_dri.so
   obj:/usr/lib/x86_64-linux-gnu/dri/radeonsi_dri.so
   obj:/usr/lib/x86_64-linux-gnu/dri/radeonsi_dri.so
   obj:/usr/lib/x86_64-linux-gnu/dri/radeonsi_dri.so
   fun:start_thread
}
{
   <insert_a_suppression_name_here>
   Memcheck:Leak
   match-leak-kinds: reachable
   fun:_Znwm
   obj:/usr/lib/x86_64-linux-gnu/libLLVM-9.so.1
   fun:__pthread_once_slow
   fun:_ZN4llvm27initializeSIInsertSkipsPassERNS_12PassRegistryE
   fun:LLVMInitializeAMDGPUTarget
   obj:/usr/lib/x86_64-linux-gnu/dri/radeonsi_dri.so
   fun:__pthread_once_slow
   obj:/usr/lib/x86_64-linux-gnu/dri/radeonsi_dri.so
   obj:/usr/lib/x86_64-linux-gnu/dri/radeonsi_dri.so
   obj:/usr/lib/x86_64-linux-gnu/dri/radeonsi_dri.so
   obj:/usr/lib/x86_64-linux-gnu/dri/radeonsi_dri.so
   fun:start_thread
}
{
   <insert_a_suppression_name_here>
   Memcheck:Leak
   match-leak-kinds: reachable
   fun:_Znwm
   obj:/usr/lib/x86_64-linux-gnu/libLLVM-9.so.1
   fun:__pthread_once_slow
   fun:_ZN4llvm31initializeSIMemoryLegalizerPassERNS_12PassRegistryE
   fun:LLVMInitializeAMDGPUTarget
   obj:/usr/lib/x86_64-linux-gnu/dri/radeonsi_dri.so
   fun:__pthread_once_slow
   obj:/usr/lib/x86_64-linux-gnu/dri/radeonsi_dri.so
   obj:/usr/lib/x86_64-linux-gnu/dri/radeonsi_dri.so
   obj:/usr/lib/x86_64-linux-gnu/dri/radeonsi_dri.so
   obj:/usr/lib/x86_64-linux-gnu/dri/radeonsi_dri.so
   fun:start_thread
}
{
   <insert_a_suppression_name_here>
   Memcheck:Leak
   match-leak-kinds: reachable
   fun:_Znwm
   obj:/usr/lib/x86_64-linux-gnu/libLLVM-9.so.1
   fun:__pthread_once_slow
   fun:_ZN4llvm35initializeSIOptimizeExecMaskingPassERNS_12PassRegistryE
   fun:LLVMInitializeAMDGPUTarget
   obj:/usr/lib/x86_64-linux-gnu/dri/radeonsi_dri.so
   fun:__pthread_once_slow
   obj:/usr/lib/x86_64-linux-gnu/dri/radeonsi_dri.so
   obj:/usr/lib/x86_64-linux-gnu/dri/radeonsi_dri.so
   obj:/usr/lib/x86_64-linux-gnu/dri/radeonsi_dri.so
   obj:/usr/lib/x86_64-linux-gnu/dri/radeonsi_dri.so
   fun:start_thread
}
{
   <insert_a_suppression_name_here>
   Memcheck:Leak
   match-leak-kinds: reachable
   fun:_Znwm
   obj:/usr/lib/x86_64-linux-gnu/libLLVM-9.so.1
   fun:__pthread_once_slow
   fun:_ZN4llvm27initializeLiveRegMatrixPassERNS_12PassRegistryE
   obj:/usr/lib/x86_64-linux-gnu/libLLVM-9.so.1
   fun:__pthread_once_slow
   fun:_ZN4llvm34initializeSIPreAllocateWWMRegsPassERNS_12PassRegistryE
   fun:LLVMInitializeAMDGPUTarget
   obj:/usr/lib/x86_64-linux-gnu/dri/radeonsi_dri.so
   fun:__pthread_once_slow
   obj:/usr/lib/x86_64-linux-gnu/dri/radeonsi_dri.so
   obj:/usr/lib/x86_64-linux-gnu/dri/radeonsi_dri.so
}
{
   <insert_a_suppression_name_here>
   Memcheck:Leak
   match-leak-kinds: reachable
   fun:_Znwm
   obj:/usr/lib/x86_64-linux-gnu/libLLVM-9.so.1
   fun:__pthread_once_slow
   fun:_ZN4llvm34initializeSIPreAllocateWWMRegsPassERNS_12PassRegistryE
   fun:LLVMInitializeAMDGPUTarget
   obj:/usr/lib/x86_64-linux-gnu/dri/radeonsi_dri.so
   fun:__pthread_once_slow
   obj:/usr/lib/x86_64-linux-gnu/dri/radeonsi_dri.so
   obj:/usr/lib/x86_64-linux-gnu/dri/radeonsi_dri.so
   obj:/usr/lib/x86_64-linux-gnu/dri/radeonsi_dri.so
   obj:/usr/lib/x86_64-linux-gnu/dri/radeonsi_dri.so
   fun:start_thread
}
{
   <insert_a_suppression_name_here>
   Memcheck:Leak
   match-leak-kinds: reachable
   fun:_Znwm
   obj:/usr/lib/x86_64-linux-gnu/libLLVM-9.so.1
   fun:__pthread_once_slow
   fun:_ZN4llvm33initializeSIFormMemoryClausesPassERNS_12PassRegistryE
   fun:LLVMInitializeAMDGPUTarget
   obj:/usr/lib/x86_64-linux-gnu/dri/radeonsi_dri.so
   fun:__pthread_once_slow
   obj:/usr/lib/x86_64-linux-gnu/dri/radeonsi_dri.so
   obj:/usr/lib/x86_64-linux-gnu/dri/radeonsi_dri.so
   obj:/usr/lib/x86_64-linux-gnu/dri/radeonsi_dri.so
   obj:/usr/lib/x86_64-linux-gnu/dri/radeonsi_dri.so
   fun:start_thread
}
{
   <insert_a_suppression_name_here>
   Memcheck:Leak
   match-leak-kinds: reachable
   fun:_Znwm
   obj:/usr/lib/x86_64-linux-gnu/libLLVM-9.so.1
   fun:__pthread_once_slow
   fun:_ZN4llvm43initializeAMDGPUUnifyDivergentExitNodesPassERNS_12PassRegistryE
   fun:LLVMInitializeAMDGPUTarget
   obj:/usr/lib/x86_64-linux-gnu/dri/radeonsi_dri.so
   fun:__pthread_once_slow
   obj:/usr/lib/x86_64-linux-gnu/dri/radeonsi_dri.so
   obj:/usr/lib/x86_64-linux-gnu/dri/radeonsi_dri.so
   obj:/usr/lib/x86_64-linux-gnu/dri/radeonsi_dri.so
   obj:/usr/lib/x86_64-linux-gnu/dri/radeonsi_dri.so
   fun:start_thread
}
{
   <insert_a_suppression_name_here>
   Memcheck:Leak
   match-leak-kinds: reachable
   fun:_Znwm
   obj:/usr/lib/x86_64-linux-gnu/libLLVM-9.so.1
   fun:__pthread_once_slow
   fun:_ZN4llvm33initializeAMDGPUAAWrapperPassPassERNS_12PassRegistryE
   fun:LLVMInitializeAMDGPUTarget
   obj:/usr/lib/x86_64-linux-gnu/dri/radeonsi_dri.so
   fun:__pthread_once_slow
   obj:/usr/lib/x86_64-linux-gnu/dri/radeonsi_dri.so
   obj:/usr/lib/x86_64-linux-gnu/dri/radeonsi_dri.so
   obj:/usr/lib/x86_64-linux-gnu/dri/radeonsi_dri.so
   obj:/usr/lib/x86_64-linux-gnu/dri/radeonsi_dri.so
   fun:start_thread
}
{
   <insert_a_suppression_name_here>
   Memcheck:Leak
   match-leak-kinds: reachable
   fun:_Znwm
   obj:/usr/lib/x86_64-linux-gnu/libLLVM-9.so.1
   fun:__pthread_once_slow
   fun:_ZN4llvm37initializeAMDGPUExternalAAWrapperPassERNS_12PassRegistryE
   fun:LLVMInitializeAMDGPUTarget
   obj:/usr/lib/x86_64-linux-gnu/dri/radeonsi_dri.so
   fun:__pthread_once_slow
   obj:/usr/lib/x86_64-linux-gnu/dri/radeonsi_dri.so
   obj:/usr/lib/x86_64-linux-gnu/dri/radeonsi_dri.so
   obj:/usr/lib/x86_64-linux-gnu/dri/radeonsi_dri.so
   obj:/usr/lib/x86_64-linux-gnu/dri/radeonsi_dri.so
   fun:start_thread
}
{
   <insert_a_suppression_name_here>
   Memcheck:Leak
   match-leak-kinds: reachable
   fun:_Znwm
   obj:/usr/lib/x86_64-linux-gnu/libLLVM-9.so.1
   fun:__pthread_once_slow
   fun:_ZN4llvm34initializeAMDGPUUseNativeCallsPassERNS_12PassRegistryE
   fun:LLVMInitializeAMDGPUTarget
   obj:/usr/lib/x86_64-linux-gnu/dri/radeonsi_dri.so
   fun:__pthread_once_slow
   obj:/usr/lib/x86_64-linux-gnu/dri/radeonsi_dri.so
   obj:/usr/lib/x86_64-linux-gnu/dri/radeonsi_dri.so
   obj:/usr/lib/x86_64-linux-gnu/dri/radeonsi_dri.so
   obj:/usr/lib/x86_64-linux-gnu/dri/radeonsi_dri.so
   fun:start_thread
}
{
   <insert_a_suppression_name_here>
   Memcheck:Leak
   match-leak-kinds: reachable
   fun:_Znwm
   obj:/usr/lib/x86_64-linux-gnu/libLLVM-9.so.1
   fun:__pthread_once_slow
   fun:_ZN4llvm36initializeAMDGPUSimplifyLibCallsPassERNS_12PassRegistryE
   fun:LLVMInitializeAMDGPUTarget
   obj:/usr/lib/x86_64-linux-gnu/dri/radeonsi_dri.so
   fun:__pthread_once_slow
   obj:/usr/lib/x86_64-linux-gnu/dri/radeonsi_dri.so
   obj:/usr/lib/x86_64-linux-gnu/dri/radeonsi_dri.so
   obj:/usr/lib/x86_64-linux-gnu/dri/radeonsi_dri.so
   obj:/usr/lib/x86_64-linux-gnu/dri/radeonsi_dri.so
   fun:start_thread
}
{
   <insert_a_suppression_name_here>
   Memcheck:Leak
   match-leak-kinds: reachable
   fun:_Znwm
   obj:/usr/lib/x86_64-linux-gnu/libLLVM-9.so.1
   fun:__pthread_once_slow
   fun:_ZN4llvm43initializeProfileSummaryInfoWrapperPassPassERNS_12PassRegistryE
   obj:/usr/lib/x86_64-linux-gnu/libLLVM-9.so.1
   fun:__pthread_once_slow
   fun:_ZN4llvm27initializeAMDGPUInlinerPassERNS_12PassRegistryE
   fun:LLVMInitializeAMDGPUTarget
   obj:/usr/lib/x86_64-linux-gnu/dri/radeonsi_dri.so
   fun:__pthread_once_slow
   obj:/usr/lib/x86_64-linux-gnu/dri/radeonsi_dri.so
   obj:/usr/lib/x86_64-linux-gnu/dri/radeonsi_dri.so
}
{
   <insert_a_suppression_name_here>
   Memcheck:Leak
   match-leak-kinds: reachable
   fun:_Znwm
   obj:/usr/lib/x86_64-linux-gnu/libLLVM-9.so.1
   fun:__pthread_once_slow
   fun:_ZN4llvm27initializeAMDGPUInlinerPassERNS_12PassRegistryE
   fun:LLVMInitializeAMDGPUTarget
   obj:/usr/lib/x86_64-linux-gnu/dri/radeonsi_dri.so
   fun:__pthread_once_slow
   obj:/usr/lib/x86_64-linux-gnu/dri/radeonsi_dri.so
   obj:/usr/lib/x86_64-linux-gnu/dri/radeonsi_dri.so
   obj:/usr/lib/x86_64-linux-gnu/dri/radeonsi_dri.so
   obj:/usr/lib/x86_64-linux-gnu/dri/radeonsi_dri.so
   fun:start_thread
}
{
   <insert_a_suppression_name_here>
   Memcheck:Leak
   match-leak-kinds: reachable
   fun:_Znwm
   obj:/usr/lib/x86_64-linux-gnu/libLLVM-9.so.1
   fun:__pthread_once_slow
   fun:_ZN4llvm32initializeGCNRegBankReassignPassERNS_12PassRegistryE
   fun:LLVMInitializeAMDGPUTarget
   obj:/usr/lib/x86_64-linux-gnu/dri/radeonsi_dri.so
   fun:__pthread_once_slow
   obj:/usr/lib/x86_64-linux-gnu/dri/radeonsi_dri.so
   obj:/usr/lib/x86_64-linux-gnu/dri/radeonsi_dri.so
   obj:/usr/lib/x86_64-linux-gnu/dri/radeonsi_dri.so
   obj:/usr/lib/x86_64-linux-gnu/dri/radeonsi_dri.so
   fun:start_thread
}
{
   <insert_a_suppression_name_here>
   Memcheck:Leak
   match-leak-kinds: reachable
   fun:_Znwm
   obj:/usr/lib/x86_64-linux-gnu/libLLVM-9.so.1
   fun:__pthread_once_slow
   fun:_ZN4llvm28initializeGCNNSAReassignPassERNS_12PassRegistryE
   obj:/usr/lib/x86_64-linux-gnu/dri/radeonsi_dri.so
   fun:__pthread_once_slow
   obj:/usr/lib/x86_64-linux-gnu/dri/radeonsi_dri.so
   obj:/usr/lib/x86_64-linux-gnu/dri/radeonsi_dri.so
   obj:/usr/lib/x86_64-linux-gnu/dri/radeonsi_dri.so
   obj:/usr/lib/x86_64-linux-gnu/dri/radeonsi_dri.so
   fun:start_thread
   fun:clone
}
{
   <insert_a_suppression_name_here>
   Memcheck:Leak
   match-leak-kinds: reachable
   fun:_Znwm
   obj:/usr/lib/x86_64-linux-gnu/libLLVM-9.so.1
   fun:__pthread_once_slow
   fun:_ZN4llvm29createAlwaysInlinerLegacyPassEb
   fun:LLVMAddAlwaysInlinerPass
   obj:/usr/lib/x86_64-linux-gnu/dri/radeonsi_dri.so
   obj:/usr/lib/x86_64-linux-gnu/dri/radeonsi_dri.so
   obj:/usr/lib/x86_64-linux-gnu/dri/radeonsi_dri.so
   obj:/usr/lib/x86_64-linux-gnu/dri/radeonsi_dri.so
   obj:/usr/lib/x86_64-linux-gnu/dri/radeonsi_dri.so
   fun:start_thread
   fun:clone
}
{
   <insert_a_suppression_name_here>
   Memcheck:Leak
   match-leak-kinds: reachable
   fun:_Znwm
   obj:/usr/lib/x86_64-linux-gnu/libLLVM-9.so.1
   fun:__pthread_once_slow
   fun:_ZN4llvm21createBarrierNoopPassEv
   obj:/usr/lib/x86_64-linux-gnu/dri/radeonsi_dri.so
   obj:/usr/lib/x86_64-linux-gnu/dri/radeonsi_dri.so
   obj:/usr/lib/x86_64-linux-gnu/dri/radeonsi_dri.so
   obj:/usr/lib/x86_64-linux-gnu/dri/radeonsi_dri.so
   obj:/usr/lib/x86_64-linux-gnu/dri/radeonsi_dri.so
   obj:/usr/lib/x86_64-linux-gnu/dri/radeonsi_dri.so
   fun:start_thread
   fun:clone
}
{
   <insert_a_suppression_name_here>
   Memcheck:Leak
   match-leak-kinds: reachable
   fun:_Znwm
   obj:/usr/lib/x86_64-linux-gnu/libLLVM-9.so.1
   fun:__pthread_once_slow
   fun:_ZN4llvm33createPromoteMemoryToRegisterPassEv
   fun:LLVMAddPromoteMemoryToRegisterPass
   obj:/usr/lib/x86_64-linux-gnu/dri/radeonsi_dri.so
   obj:/usr/lib/x86_64-linux-gnu/dri/radeonsi_dri.so
   obj:/usr/lib/x86_64-linux-gnu/dri/radeonsi_dri.so
   obj:/usr/lib/x86_64-linux-gnu/dri/radeonsi_dri.so
   obj:/usr/lib/x86_64-linux-gnu/dri/radeonsi_dri.so
   fun:start_thread
   fun:clone
}
{
   <insert_a_suppression_name_here>
   Memcheck:Leak
   match-leak-kinds: reachable
   fun:_Znwm
   obj:/usr/lib/x86_64-linux-gnu/libLLVM-9.so.1
   fun:__pthread_once_slow
   obj:/usr/lib/x86_64-linux-gnu/libLLVM-9.so.1
   fun:_ZN4llvm14createSROAPassEv
   fun:LLVMAddScalarReplAggregatesPass
   obj:/usr/lib/x86_64-linux-gnu/dri/radeonsi_dri.so
   obj:/usr/lib/x86_64-linux-gnu/dri/radeonsi_dri.so
   obj:/usr/lib/x86_64-linux-gnu/dri/radeonsi_dri.so
   obj:/usr/lib/x86_64-linux-gnu/dri/radeonsi_dri.so
   obj:/usr/lib/x86_64-linux-gnu/dri/radeonsi_dri.so
   fun:start_thread
}
{
   <insert_a_suppression_name_here>
   Memcheck:Leak
   match-leak-kinds: reachable
   fun:_Znwm
   obj:/usr/lib/x86_64-linux-gnu/libLLVM-9.so.1
   fun:__pthread_once_slow
   fun:_ZN4llvm26initializeLoopSimplifyPassERNS_12PassRegistryE
   fun:_ZN4llvm22initializeLoopPassPassERNS_12PassRegistryE
   obj:/usr/lib/x86_64-linux-gnu/libLLVM-9.so.1
   fun:__pthread_once_slow
   fun:_ZN4llvm14createLICMPassEv
   fun:LLVMAddLICMPass
   obj:/usr/lib/x86_64-linux-gnu/dri/radeonsi_dri.so
   obj:/usr/lib/x86_64-linux-gnu/dri/radeonsi_dri.so
   obj:/usr/lib/x86_64-linux-gnu/dri/radeonsi_dri.so
}
{
   <insert_a_suppression_name_here>
   Memcheck:Leak
   match-leak-kinds: reachable
   fun:_Znwm
   obj:/usr/lib/x86_64-linux-gnu/libLLVM-9.so.1
   fun:__pthread_once_slow
   fun:_ZN4llvm35initializeLCSSAVerificationPassPassERNS_12PassRegistryE
   obj:/usr/lib/x86_64-linux-gnu/libLLVM-9.so.1
   fun:__pthread_once_slow
   fun:_ZN4llvm30initializeLCSSAWrapperPassPassERNS_12PassRegistryE
   fun:_ZN4llvm22initializeLoopPassPassERNS_12PassRegistryE
   obj:/usr/lib/x86_64-linux-gnu/libLLVM-9.so.1
   fun:__pthread_once_slow
   fun:_ZN4llvm14createLICMPassEv
   fun:LLVMAddLICMPass
}
{
   <insert_a_suppression_name_here>
   Memcheck:Leak
   match-leak-kinds: reachable
   fun:_Znwm
   obj:/usr/lib/x86_64-linux-gnu/libLLVM-9.so.1
   fun:__pthread_once_slow
   fun:_ZN4llvm30initializeLCSSAWrapperPassPassERNS_12PassRegistryE
   fun:_ZN4llvm22initializeLoopPassPassERNS_12PassRegistryE
   obj:/usr/lib/x86_64-linux-gnu/libLLVM-9.so.1
   fun:__pthread_once_slow
   fun:_ZN4llvm14createLICMPassEv
   fun:LLVMAddLICMPass
   obj:/usr/lib/x86_64-linux-gnu/dri/radeonsi_dri.so
   obj:/usr/lib/x86_64-linux-gnu/dri/radeonsi_dri.so
   obj:/usr/lib/x86_64-linux-gnu/dri/radeonsi_dri.so
}
{
   <insert_a_suppression_name_here>
   Memcheck:Leak
   match-leak-kinds: reachable
   fun:_Znwm
   obj:/usr/lib/x86_64-linux-gnu/libLLVM-9.so.1
   fun:__pthread_once_slow
   fun:_ZN4llvm34initializeMemorySSAWrapperPassPassERNS_12PassRegistryE
   obj:/usr/lib/x86_64-linux-gnu/libLLVM-9.so.1
   fun:__pthread_once_slow
   fun:_ZN4llvm14createLICMPassEv
   fun:LLVMAddLICMPass
   obj:/usr/lib/x86_64-linux-gnu/dri/radeonsi_dri.so
   obj:/usr/lib/x86_64-linux-gnu/dri/radeonsi_dri.so
   obj:/usr/lib/x86_64-linux-gnu/dri/radeonsi_dri.so
   obj:/usr/lib/x86_64-linux-gnu/dri/radeonsi_dri.so
}
{
   <insert_a_suppression_name_here>
   Memcheck:Leak
   match-leak-kinds: reachable
   fun:_Znwm
   obj:/usr/lib/x86_64-linux-gnu/libLLVM-9.so.1
   fun:__pthread_once_slow
   fun:_ZN4llvm14createLICMPassEv
   fun:LLVMAddLICMPass
   obj:/usr/lib/x86_64-linux-gnu/dri/radeonsi_dri.so
   obj:/usr/lib/x86_64-linux-gnu/dri/radeonsi_dri.so
   obj:/usr/lib/x86_64-linux-gnu/dri/radeonsi_dri.so
   obj:/usr/lib/x86_64-linux-gnu/dri/radeonsi_dri.so
   obj:/usr/lib/x86_64-linux-gnu/dri/radeonsi_dri.so
   fun:start_thread
   fun:clone
}
{
   <insert_a_suppression_name_here>
   Memcheck:Leak
   match-leak-kinds: reachable
   fun:_Znwm
   obj:/usr/lib/x86_64-linux-gnu/libLLVM-9.so.1
   fun:__pthread_once_slow
   fun:_ZN4llvm23createAggressiveDCEPassEv
   fun:LLVMAddAggressiveDCEPass
   obj:/usr/lib/x86_64-linux-gnu/dri/radeonsi_dri.so
   obj:/usr/lib/x86_64-linux-gnu/dri/radeonsi_dri.so
   obj:/usr/lib/x86_64-linux-gnu/dri/radeonsi_dri.so
   obj:/usr/lib/x86_64-linux-gnu/dri/radeonsi_dri.so
   obj:/usr/lib/x86_64-linux-gnu/dri/radeonsi_dri.so
   fun:start_thread
   fun:clone
}
{
   <insert_a_suppression_name_here>
   Memcheck:Leak
   match-leak-kinds: reachable
   fun:_Znwm
   obj:/usr/lib/x86_64-linux-gnu/libLLVM-9.so.1
   fun:__pthread_once_slow
   obj:/usr/lib/x86_64-linux-gnu/libLLVM-9.so.1
   fun:_ZN4llvm27createCFGSimplificationPassEjbbbbSt8functionIFbRKNS_8FunctionEEE
   fun:LLVMAddCFGSimplificationPass
   obj:/usr/lib/x86_64-linux-gnu/dri/radeonsi_dri.so
   obj:/usr/lib/x86_64-linux-gnu/dri/radeonsi_dri.so
   obj:/usr/lib/x86_64-linux-gnu/dri/radeonsi_dri.so
   obj:/usr/lib/x86_64-linux-gnu/dri/radeonsi_dri.so
   obj:/usr/lib/x86_64-linux-gnu/dri/radeonsi_dri.so
   fun:start_thread
}
{
   <insert_a_suppression_name_here>
   Memcheck:Leak
   match-leak-kinds: reachable
   fun:_Znwm
   obj:/usr/lib/x86_64-linux-gnu/libLLVM-9.so.1
   fun:__pthread_once_slow
   fun:_ZN4llvm18createEarlyCSEPassEb
   fun:LLVMAddEarlyCSEMemSSAPass
   obj:/usr/lib/x86_64-linux-gnu/dri/radeonsi_dri.so
   obj:/usr/lib/x86_64-linux-gnu/dri/radeonsi_dri.so
   obj:/usr/lib/x86_64-linux-gnu/dri/radeonsi_dri.so
   obj:/usr/lib/x86_64-linux-gnu/dri/radeonsi_dri.so
   obj:/usr/lib/x86_64-linux-gnu/dri/radeonsi_dri.so
   fun:start_thread
   fun:clone
}
{
   <insert_a_suppression_name_here>
   Memcheck:Leak
   match-leak-kinds: reachable
   fun:_Znwm
   obj:/usr/lib/x86_64-linux-gnu/libLLVM-9.so.1
   fun:__pthread_once_slow
   fun:_ZN4llvm25initializeLazyBPIPassPassERNS_12PassRegistryE
   fun:_ZN4llvm25initializeLazyBFIPassPassERNS_12PassRegistryE
   obj:/usr/lib/x86_64-linux-gnu/libLLVM-9.so.1
   fun:__pthread_once_slow
   fun:_ZN4llvm50initializeOptimizationRemarkEmitterWrapperPassPassERNS_12PassRegistryE
   obj:/usr/lib/x86_64-linux-gnu/libLLVM-9.so.1
   fun:__pthread_once_slow
   fun:LLVMAddInstructionCombiningPass
   obj:/usr/lib/x86_64-linux-gnu/dri/radeonsi_dri.so
}
{
   <insert_a_suppression_name_here>
   Memcheck:Leak
   match-leak-kinds: reachable
   fun:_Znwm
   obj:/usr/lib/x86_64-linux-gnu/libLLVM-9.so.1
   fun:__pthread_once_slow
   fun:_ZN4llvm25initializeLazyBFIPassPassERNS_12PassRegistryE
   obj:/usr/lib/x86_64-linux-gnu/libLLVM-9.so.1
   fun:__pthread_once_slow
   fun:_ZN4llvm50initializeOptimizationRemarkEmitterWrapperPassPassERNS_12PassRegistryE
   obj:/usr/lib/x86_64-linux-gnu/libLLVM-9.so.1
   fun:__pthread_once_slow
   fun:LLVMAddInstructionCombiningPass
   obj:/usr/lib/x86_64-linux-gnu/dri/radeonsi_dri.so
   obj:/usr/lib/x86_64-linux-gnu/dri/radeonsi_dri.so
}
{
   <insert_a_suppression_name_here>
   Memcheck:Leak
   match-leak-kinds: reachable
   fun:_Znwm
   obj:/usr/lib/x86_64-linux-gnu/libLLVM-9.so.1
   fun:__pthread_once_slow
   fun:_ZN4llvm50initializeOptimizationRemarkEmitterWrapperPassPassERNS_12PassRegistryE
   obj:/usr/lib/x86_64-linux-gnu/libLLVM-9.so.1
   fun:__pthread_once_slow
   fun:LLVMAddInstructionCombiningPass
   obj:/usr/lib/x86_64-linux-gnu/dri/radeonsi_dri.so
   obj:/usr/lib/x86_64-linux-gnu/dri/radeonsi_dri.so
   obj:/usr/lib/x86_64-linux-gnu/dri/radeonsi_dri.so
   obj:/usr/lib/x86_64-linux-gnu/dri/radeonsi_dri.so
   obj:/usr/lib/x86_64-linux-gnu/dri/radeonsi_dri.so
}
{
   <insert_a_suppression_name_here>
   Memcheck:Leak
   match-leak-kinds: reachable
   fun:_Znwm
   obj:/usr/lib/x86_64-linux-gnu/libLLVM-9.so.1
   fun:__pthread_once_slow
   fun:LLVMAddInstructionCombiningPass
   obj:/usr/lib/x86_64-linux-gnu/dri/radeonsi_dri.so
   obj:/usr/lib/x86_64-linux-gnu/dri/radeonsi_dri.so
   obj:/usr/lib/x86_64-linux-gnu/dri/radeonsi_dri.so
   obj:/usr/lib/x86_64-linux-gnu/dri/radeonsi_dri.so
   obj:/usr/lib/x86_64-linux-gnu/dri/radeonsi_dri.so
   fun:start_thread
   fun:clone
}
{
   <insert_a_suppression_name_here>
   Memcheck:Leak
   match-leak-kinds: reachable
   fun:_Znwm
   obj:/usr/lib/x86_64-linux-gnu/libLLVM-9.so.1
   fun:__pthread_once_slow
   fun:_ZN4llvm17MachineModuleInfoC1EPKNS_17LLVMTargetMachineE
   fun:_ZN4llvm17LLVMTargetMachine19addPassesToEmitFileERNS_6legacy15PassManagerBaseERNS_17raw_pwrite_streamEPS4_NS_13TargetMachine15CodeGenFileTypeEbPNS_17MachineModuleInfoE
   obj:/usr/lib/x86_64-linux-gnu/dri/radeonsi_dri.so
   obj:/usr/lib/x86_64-linux-gnu/dri/radeonsi_dri.so
   obj:/usr/lib/x86_64-linux-gnu/dri/radeonsi_dri.so
   obj:/usr/lib/x86_64-linux-gnu/dri/radeonsi_dri.so
   obj:/usr/lib/x86_64-linux-gnu/dri/radeonsi_dri.so
   fun:start_thread
   fun:clone
}
{
   <insert_a_suppression_name_here>
   Memcheck:Leak
   match-leak-kinds: reachable
   fun:_Znwm
   obj:/usr/lib/x86_64-linux-gnu/libLLVM-9.so.1
   fun:__pthread_once_slow
   fun:_ZN4llvm26initializeAtomicExpandPassERNS_12PassRegistryE
   fun:_ZN4llvm17initializeCodeGenERNS_12PassRegistryE
   fun:_ZN4llvm16TargetPassConfigC1ERNS_17LLVMTargetMachineERNS_6legacy15PassManagerBaseE
   fun:_ZN4llvm16GCNTargetMachine16createPassConfigERNS_6legacy15PassManagerBaseE
   fun:_ZN4llvm17LLVMTargetMachine19addPassesToEmitFileERNS_6legacy15PassManagerBaseERNS_17raw_pwrite_streamEPS4_NS_13TargetMachine15CodeGenFileTypeEbPNS_17MachineModuleInfoE
   obj:/usr/lib/x86_64-linux-gnu/dri/radeonsi_dri.so
   obj:/usr/lib/x86_64-linux-gnu/dri/radeonsi_dri.so
   obj:/usr/lib/x86_64-linux-gnu/dri/radeonsi_dri.so
   obj:/usr/lib/x86_64-linux-gnu/dri/radeonsi_dri.so
}
{
   <insert_a_suppression_name_here>
   Memcheck:Leak
   match-leak-kinds: reachable
   fun:_Znwm
   obj:/usr/lib/x86_64-linux-gnu/libLLVM-9.so.1
   fun:__pthread_once_slow
   fun:_ZN4llvm30initializeBranchFolderPassPassERNS_12PassRegistryE
   fun:_ZN4llvm17initializeCodeGenERNS_12PassRegistryE
   fun:_ZN4llvm16TargetPassConfigC1ERNS_17LLVMTargetMachineERNS_6legacy15PassManagerBaseE
   fun:_ZN4llvm16GCNTargetMachine16createPassConfigERNS_6legacy15PassManagerBaseE
   fun:_ZN4llvm17LLVMTargetMachine19addPassesToEmitFileERNS_6legacy15PassManagerBaseERNS_17raw_pwrite_streamEPS4_NS_13TargetMachine15CodeGenFileTypeEbPNS_17MachineModuleInfoE
   obj:/usr/lib/x86_64-linux-gnu/dri/radeonsi_dri.so
   obj:/usr/lib/x86_64-linux-gnu/dri/radeonsi_dri.so
   obj:/usr/lib/x86_64-linux-gnu/dri/radeonsi_dri.so
   obj:/usr/lib/x86_64-linux-gnu/dri/radeonsi_dri.so
}
{
   <insert_a_suppression_name_here>
   Memcheck:Leak
   match-leak-kinds: reachable
   fun:_Znwm
   obj:/usr/lib/x86_64-linux-gnu/libLLVM-9.so.1
   fun:__pthread_once_slow
   fun:_ZN4llvm30initializeBranchRelaxationPassERNS_12PassRegistryE
   fun:_ZN4llvm17initializeCodeGenERNS_12PassRegistryE
   fun:_ZN4llvm16TargetPassConfigC1ERNS_17LLVMTargetMachineERNS_6legacy15PassManagerBaseE
   fun:_ZN4llvm16GCNTargetMachine16createPassConfigERNS_6legacy15PassManagerBaseE
   fun:_ZN4llvm17LLVMTargetMachine19addPassesToEmitFileERNS_6legacy15PassManagerBaseERNS_17raw_pwrite_streamEPS4_NS_13TargetMachine15CodeGenFileTypeEbPNS_17MachineModuleInfoE
   obj:/usr/lib/x86_64-linux-gnu/dri/radeonsi_dri.so
   obj:/usr/lib/x86_64-linux-gnu/dri/radeonsi_dri.so
   obj:/usr/lib/x86_64-linux-gnu/dri/radeonsi_dri.so
   obj:/usr/lib/x86_64-linux-gnu/dri/radeonsi_dri.so
}
{
   <insert_a_suppression_name_here>
   Memcheck:Leak
   match-leak-kinds: reachable
   fun:_Znwm
   obj:/usr/lib/x86_64-linux-gnu/libLLVM-9.so.1
   fun:__pthread_once_slow
   fun:_ZN4llvm30initializeCFIInstrInserterPassERNS_12PassRegistryE
   fun:_ZN4llvm17initializeCodeGenERNS_12PassRegistryE
   fun:_ZN4llvm16TargetPassConfigC1ERNS_17LLVMTargetMachineERNS_6legacy15PassManagerBaseE
   fun:_ZN4llvm16GCNTargetMachine16createPassConfigERNS_6legacy15PassManagerBaseE
   fun:_ZN4llvm17LLVMTargetMachine19addPassesToEmitFileERNS_6legacy15PassManagerBaseERNS_17raw_pwrite_streamEPS4_NS_13TargetMachine15CodeGenFileTypeEbPNS_17MachineModuleInfoE
   obj:/usr/lib/x86_64-linux-gnu/dri/radeonsi_dri.so
   obj:/usr/lib/x86_64-linux-gnu/dri/radeonsi_dri.so
   obj:/usr/lib/x86_64-linux-gnu/dri/radeonsi_dri.so
   obj:/usr/lib/x86_64-linux-gnu/dri/radeonsi_dri.so
}
{
   <insert_a_suppression_name_here>
   Memcheck:Leak
   match-leak-kinds: reachable
   fun:_Znwm
   obj:/usr/lib/x86_64-linux-gnu/libLLVM-9.so.1
   fun:__pthread_once_slow
   fun:_ZN4llvm28initializeCodeGenPreparePassERNS_12PassRegistryE
   fun:_ZN4llvm17initializeCodeGenERNS_12PassRegistryE
   fun:_ZN4llvm16TargetPassConfigC1ERNS_17LLVMTargetMachineERNS_6legacy15PassManagerBaseE
   fun:_ZN4llvm16GCNTargetMachine16createPassConfigERNS_6legacy15PassManagerBaseE
   fun:_ZN4llvm17LLVMTargetMachine19addPassesToEmitFileERNS_6legacy15PassManagerBaseERNS_17raw_pwrite_streamEPS4_NS_13TargetMachine15CodeGenFileTypeEbPNS_17MachineModuleInfoE
   obj:/usr/lib/x86_64-linux-gnu/dri/radeonsi_dri.so
   obj:/usr/lib/x86_64-linux-gnu/dri/radeonsi_dri.so
   obj:/usr/lib/x86_64-linux-gnu/dri/radeonsi_dri.so
   obj:/usr/lib/x86_64-linux-gnu/dri/radeonsi_dri.so
}
{
   <insert_a_suppression_name_here>
   Memcheck:Leak
   match-leak-kinds: reachable
   fun:_Znwm
   obj:/usr/lib/x86_64-linux-gnu/libLLVM-9.so.1
   fun:__pthread_once_slow
   fun:_ZN4llvm40initializeDeadMachineInstructionElimPassERNS_12PassRegistryE
   fun:_ZN4llvm17initializeCodeGenERNS_12PassRegistryE
   fun:_ZN4llvm16TargetPassConfigC1ERNS_17LLVMTargetMachineERNS_6legacy15PassManagerBaseE
   fun:_ZN4llvm16GCNTargetMachine16createPassConfigERNS_6legacy15PassManagerBaseE
   fun:_ZN4llvm17LLVMTargetMachine19addPassesToEmitFileERNS_6legacy15PassManagerBaseERNS_17raw_pwrite_streamEPS4_NS_13TargetMachine15CodeGenFileTypeEbPNS_17MachineModuleInfoE
   obj:/usr/lib/x86_64-linux-gnu/dri/radeonsi_dri.so
   obj:/usr/lib/x86_64-linux-gnu/dri/radeonsi_dri.so
   obj:/usr/lib/x86_64-linux-gnu/dri/radeonsi_dri.so
   obj:/usr/lib/x86_64-linux-gnu/dri/radeonsi_dri.so
}
{
   <insert_a_suppression_name_here>
   Memcheck:Leak
   match-leak-kinds: reachable
   fun:_Znwm
   obj:/usr/lib/x86_64-linux-gnu/libLLVM-9.so.1
   fun:__pthread_once_slow
   fun:_ZN4llvm29initializeDetectDeadLanesPassERNS_12PassRegistryE
   fun:_ZN4llvm17initializeCodeGenERNS_12PassRegistryE
   fun:_ZN4llvm16TargetPassConfigC1ERNS_17LLVMTargetMachineERNS_6legacy15PassManagerBaseE
   fun:_ZN4llvm16GCNTargetMachine16createPassConfigERNS_6legacy15PassManagerBaseE
   fun:_ZN4llvm17LLVMTargetMachine19addPassesToEmitFileERNS_6legacy15PassManagerBaseERNS_17raw_pwrite_streamEPS4_NS_13TargetMachine15CodeGenFileTypeEbPNS_17MachineModuleInfoE
   obj:/usr/lib/x86_64-linux-gnu/dri/radeonsi_dri.so
   obj:/usr/lib/x86_64-linux-gnu/dri/radeonsi_dri.so
   obj:/usr/lib/x86_64-linux-gnu/dri/radeonsi_dri.so
   obj:/usr/lib/x86_64-linux-gnu/dri/radeonsi_dri.so
}
{
   <insert_a_suppression_name_here>
   Memcheck:Leak
   match-leak-kinds: reachable
   fun:_Znwm
   obj:/usr/lib/x86_64-linux-gnu/libLLVM-9.so.1
   fun:__pthread_once_slow
   fun:_ZN4llvm28initializeDwarfEHPreparePassERNS_12PassRegistryE
   fun:_ZN4llvm17initializeCodeGenERNS_12PassRegistryE
   fun:_ZN4llvm16TargetPassConfigC1ERNS_17LLVMTargetMachineERNS_6legacy15PassManagerBaseE
   fun:_ZN4llvm16GCNTargetMachine16createPassConfigERNS_6legacy15PassManagerBaseE
   fun:_ZN4llvm17LLVMTargetMachine19addPassesToEmitFileERNS_6legacy15PassManagerBaseERNS_17raw_pwrite_streamEPS4_NS_13TargetMachine15CodeGenFileTypeEbPNS_17MachineModuleInfoE
   obj:/usr/lib/x86_64-linux-gnu/dri/radeonsi_dri.so
   obj:/usr/lib/x86_64-linux-gnu/dri/radeonsi_dri.so
   obj:/usr/lib/x86_64-linux-gnu/dri/radeonsi_dri.so
   obj:/usr/lib/x86_64-linux-gnu/dri/radeonsi_dri.so
}
{
   <insert_a_suppression_name_here>
   Memcheck:Leak
   match-leak-kinds: reachable
   fun:_Znwm
   obj:/usr/lib/x86_64-linux-gnu/libLLVM-9.so.1
   fun:__pthread_once_slow
   fun:_ZN4llvm33initializeMachineTraceMetricsPassERNS_12PassRegistryE
   obj:/usr/lib/x86_64-linux-gnu/libLLVM-9.so.1
   fun:__pthread_once_slow
   fun:_ZN4llvm30initializeEarlyIfConverterPassERNS_12PassRegistryE
   fun:_ZN4llvm17initializeCodeGenERNS_12PassRegistryE
   fun:_ZN4llvm16TargetPassConfigC1ERNS_17LLVMTargetMachineERNS_6legacy15PassManagerBaseE
   fun:_ZN4llvm16GCNTargetMachine16createPassConfigERNS_6legacy15PassManagerBaseE
   fun:_ZN4llvm17LLVMTargetMachine19addPassesToEmitFileERNS_6legacy15PassManagerBaseERNS_17raw_pwrite_streamEPS4_NS_13TargetMachine15CodeGenFileTypeEbPNS_17MachineModuleInfoE
   obj:/usr/lib/x86_64-linux-gnu/dri/radeonsi_dri.so
}
{
   <insert_a_suppression_name_here>
   Memcheck:Leak
   match-leak-kinds: reachable
   fun:_Znwm
   obj:/usr/lib/x86_64-linux-gnu/libLLVM-9.so.1
   fun:__pthread_once_slow
   fun:_ZN4llvm30initializeEarlyIfConverterPassERNS_12PassRegistryE
   fun:_ZN4llvm17initializeCodeGenERNS_12PassRegistryE
   fun:_ZN4llvm16TargetPassConfigC1ERNS_17LLVMTargetMachineERNS_6legacy15PassManagerBaseE
   fun:_ZN4llvm16GCNTargetMachine16createPassConfigERNS_6legacy15PassManagerBaseE
   fun:_ZN4llvm17LLVMTargetMachine19addPassesToEmitFileERNS_6legacy15PassManagerBaseERNS_17raw_pwrite_streamEPS4_NS_13TargetMachine15CodeGenFileTypeEbPNS_17MachineModuleInfoE
   obj:/usr/lib/x86_64-linux-gnu/dri/radeonsi_dri.so
   obj:/usr/lib/x86_64-linux-gnu/dri/radeonsi_dri.so
   obj:/usr/lib/x86_64-linux-gnu/dri/radeonsi_dri.so
   obj:/usr/lib/x86_64-linux-gnu/dri/radeonsi_dri.so
}
{
   <insert_a_suppression_name_here>
   Memcheck:Leak
   match-leak-kinds: reachable
   fun:_Znwm
   obj:/usr/lib/x86_64-linux-gnu/libLLVM-9.so.1
   fun:__pthread_once_slow
   fun:_ZN4llvm30initializeEarlyMachineLICMPassERNS_12PassRegistryE
   fun:_ZN4llvm17initializeCodeGenERNS_12PassRegistryE
   fun:_ZN4llvm16TargetPassConfigC1ERNS_17LLVMTargetMachineERNS_6legacy15PassManagerBaseE
   fun:_ZN4llvm16GCNTargetMachine16createPassConfigERNS_6legacy15PassManagerBaseE
   fun:_ZN4llvm17LLVMTargetMachine19addPassesToEmitFileERNS_6legacy15PassManagerBaseERNS_17raw_pwrite_streamEPS4_NS_13TargetMachine15CodeGenFileTypeEbPNS_17MachineModuleInfoE
   obj:/usr/lib/x86_64-linux-gnu/dri/radeonsi_dri.so
   obj:/usr/lib/x86_64-linux-gnu/dri/radeonsi_dri.so
   obj:/usr/lib/x86_64-linux-gnu/dri/radeonsi_dri.so
   obj:/usr/lib/x86_64-linux-gnu/dri/radeonsi_dri.so
}
{
   <insert_a_suppression_name_here>
   Memcheck:Leak
   match-leak-kinds: reachable
   fun:_Znwm
   obj:/usr/lib/x86_64-linux-gnu/libLLVM-9.so.1
   fun:__pthread_once_slow
   fun:_ZN4llvm32initializeEarlyTailDuplicatePassERNS_12PassRegistryE
   fun:_ZN4llvm17initializeCodeGenERNS_12PassRegistryE
   fun:_ZN4llvm16TargetPassConfigC1ERNS_17LLVMTargetMachineERNS_6legacy15PassManagerBaseE
   fun:_ZN4llvm16GCNTargetMachine16createPassConfigERNS_6legacy15PassManagerBaseE
   fun:_ZN4llvm17LLVMTargetMachine19addPassesToEmitFileERNS_6legacy15PassManagerBaseERNS_17raw_pwrite_streamEPS4_NS_13TargetMachine15CodeGenFileTypeEbPNS_17MachineModuleInfoE
   obj:/usr/lib/x86_64-linux-gnu/dri/radeonsi_dri.so
   obj:/usr/lib/x86_64-linux-gnu/dri/radeonsi_dri.so
   obj:/usr/lib/x86_64-linux-gnu/dri/radeonsi_dri.so
   obj:/usr/lib/x86_64-linux-gnu/dri/radeonsi_dri.so
}
{
   <insert_a_suppression_name_here>
   Memcheck:Leak
   match-leak-kinds: reachable
   fun:_Znwm
   obj:/usr/lib/x86_64-linux-gnu/libLLVM-9.so.1
   fun:__pthread_once_slow
   fun:_ZN4llvm30initializeExpandMemCmpPassPassERNS_12PassRegistryE
   fun:_ZN4llvm17initializeCodeGenERNS_12PassRegistryE
   fun:_ZN4llvm16TargetPassConfigC1ERNS_17LLVMTargetMachineERNS_6legacy15PassManagerBaseE
   fun:_ZN4llvm16GCNTargetMachine16createPassConfigERNS_6legacy15PassManagerBaseE
   fun:_ZN4llvm17LLVMTargetMachine19addPassesToEmitFileERNS_6legacy15PassManagerBaseERNS_17raw_pwrite_streamEPS4_NS_13TargetMachine15CodeGenFileTypeEbPNS_17MachineModuleInfoE
   obj:/usr/lib/x86_64-linux-gnu/dri/radeonsi_dri.so
   obj:/usr/lib/x86_64-linux-gnu/dri/radeonsi_dri.so
   obj:/usr/lib/x86_64-linux-gnu/dri/radeonsi_dri.so
   obj:/usr/lib/x86_64-linux-gnu/dri/radeonsi_dri.so
}
{
   <insert_a_suppression_name_here>
   Memcheck:Leak
   match-leak-kinds: reachable
   fun:_Znwm
   obj:/usr/lib/x86_64-linux-gnu/libLLVM-9.so.1
   fun:__pthread_once_slow
   fun:_ZN4llvm26initializeExpandPostRAPassERNS_12PassRegistryE
   fun:_ZN4llvm17initializeCodeGenERNS_12PassRegistryE
   fun:_ZN4llvm16TargetPassConfigC1ERNS_17LLVMTargetMachineERNS_6legacy15PassManagerBaseE
   fun:_ZN4llvm16GCNTargetMachine16createPassConfigERNS_6legacy15PassManagerBaseE
   fun:_ZN4llvm17LLVMTargetMachine19addPassesToEmitFileERNS_6legacy15PassManagerBaseERNS_17raw_pwrite_streamEPS4_NS_13TargetMachine15CodeGenFileTypeEbPNS_17MachineModuleInfoE
   obj:/usr/lib/x86_64-linux-gnu/dri/radeonsi_dri.so
   obj:/usr/lib/x86_64-linux-gnu/dri/radeonsi_dri.so
   obj:/usr/lib/x86_64-linux-gnu/dri/radeonsi_dri.so
   obj:/usr/lib/x86_64-linux-gnu/dri/radeonsi_dri.so
}
{
   <insert_a_suppression_name_here>
   Memcheck:Leak
   match-leak-kinds: reachable
   fun:_Znwm
   obj:/usr/lib/x86_64-linux-gnu/libLLVM-9.so.1
   fun:__pthread_once_slow
   fun:_ZN4llvm28initializeFEntryInserterPassERNS_12PassRegistryE
   fun:_ZN4llvm17initializeCodeGenERNS_12PassRegistryE
   fun:_ZN4llvm16TargetPassConfigC1ERNS_17LLVMTargetMachineERNS_6legacy15PassManagerBaseE
   fun:_ZN4llvm16GCNTargetMachine16createPassConfigERNS_6legacy15PassManagerBaseE
   fun:_ZN4llvm17LLVMTargetMachine19addPassesToEmitFileERNS_6legacy15PassManagerBaseERNS_17raw_pwrite_streamEPS4_NS_13TargetMachine15CodeGenFileTypeEbPNS_17MachineModuleInfoE
   obj:/usr/lib/x86_64-linux-gnu/dri/radeonsi_dri.so
   obj:/usr/lib/x86_64-linux-gnu/dri/radeonsi_dri.so
   obj:/usr/lib/x86_64-linux-gnu/dri/radeonsi_dri.so
   obj:/usr/lib/x86_64-linux-gnu/dri/radeonsi_dri.so
}
{
   <insert_a_suppression_name_here>
   Memcheck:Leak
   match-leak-kinds: reachable
   fun:_Znwm
   obj:/usr/lib/x86_64-linux-gnu/libLLVM-9.so.1
   fun:__pthread_once_slow
   fun:_ZN4llvm26initializeFinalizeISelPassERNS_12PassRegistryE
   fun:_ZN4llvm17initializeCodeGenERNS_12PassRegistryE
   fun:_ZN4llvm16TargetPassConfigC1ERNS_17LLVMTargetMachineERNS_6legacy15PassManagerBaseE
   fun:_ZN4llvm16GCNTargetMachine16createPassConfigERNS_6legacy15PassManagerBaseE
   fun:_ZN4llvm17LLVMTargetMachine19addPassesToEmitFileERNS_6legacy15PassManagerBaseERNS_17raw_pwrite_streamEPS4_NS_13TargetMachine15CodeGenFileTypeEbPNS_17MachineModuleInfoE
   obj:/usr/lib/x86_64-linux-gnu/dri/radeonsi_dri.so
   obj:/usr/lib/x86_64-linux-gnu/dri/radeonsi_dri.so
   obj:/usr/lib/x86_64-linux-gnu/dri/radeonsi_dri.so
   obj:/usr/lib/x86_64-linux-gnu/dri/radeonsi_dri.so
}
{
   <insert_a_suppression_name_here>
   Memcheck:Leak
   match-leak-kinds: reachable
   fun:_Znwm
   obj:/usr/lib/x86_64-linux-gnu/libLLVM-9.so.1
   fun:__pthread_once_slow
   fun:_ZN4llvm36initializeFinalizeMachineBundlesPassERNS_12PassRegistryE
   fun:_ZN4llvm17initializeCodeGenERNS_12PassRegistryE
   fun:_ZN4llvm16TargetPassConfigC1ERNS_17LLVMTargetMachineERNS_6legacy15PassManagerBaseE
   fun:_ZN4llvm16GCNTargetMachine16createPassConfigERNS_6legacy15PassManagerBaseE
   fun:_ZN4llvm17LLVMTargetMachine19addPassesToEmitFileERNS_6legacy15PassManagerBaseERNS_17raw_pwrite_streamEPS4_NS_13TargetMachine15CodeGenFileTypeEbPNS_17MachineModuleInfoE
   obj:/usr/lib/x86_64-linux-gnu/dri/radeonsi_dri.so
   obj:/usr/lib/x86_64-linux-gnu/dri/radeonsi_dri.so
   obj:/usr/lib/x86_64-linux-gnu/dri/radeonsi_dri.so
   obj:/usr/lib/x86_64-linux-gnu/dri/radeonsi_dri.so
}
{
   <insert_a_suppression_name_here>
   Memcheck:Leak
   match-leak-kinds: reachable
   fun:_Znwm
   obj:/usr/lib/x86_64-linux-gnu/libLLVM-9.so.1
   fun:__pthread_once_slow
   fun:_ZN4llvm27initializeFuncletLayoutPassERNS_12PassRegistryE
   fun:_ZN4llvm17initializeCodeGenERNS_12PassRegistryE
   fun:_ZN4llvm16TargetPassConfigC1ERNS_17LLVMTargetMachineERNS_6legacy15PassManagerBaseE
   fun:_ZN4llvm16GCNTargetMachine16createPassConfigERNS_6legacy15PassManagerBaseE
   fun:_ZN4llvm17LLVMTargetMachine19addPassesToEmitFileERNS_6legacy15PassManagerBaseERNS_17raw_pwrite_streamEPS4_NS_13TargetMachine15CodeGenFileTypeEbPNS_17MachineModuleInfoE
   obj:/usr/lib/x86_64-linux-gnu/dri/radeonsi_dri.so
   obj:/usr/lib/x86_64-linux-gnu/dri/radeonsi_dri.so
   obj:/usr/lib/x86_64-linux-gnu/dri/radeonsi_dri.so
   obj:/usr/lib/x86_64-linux-gnu/dri/radeonsi_dri.so
}
{
   <insert_a_suppression_name_here>
   Memcheck:Leak
   match-leak-kinds: reachable
   fun:_Znwm
   obj:/usr/lib/x86_64-linux-gnu/libLLVM-9.so.1
   fun:__pthread_once_slow
   fun:_ZN4llvm35initializeGCMachineCodeAnalysisPassERNS_12PassRegistryE
   fun:_ZN4llvm17initializeCodeGenERNS_12PassRegistryE
   fun:_ZN4llvm16TargetPassConfigC1ERNS_17LLVMTargetMachineERNS_6legacy15PassManagerBaseE
   fun:_ZN4llvm16GCNTargetMachine16createPassConfigERNS_6legacy15PassManagerBaseE
   fun:_ZN4llvm17LLVMTargetMachine19addPassesToEmitFileERNS_6legacy15PassManagerBaseERNS_17raw_pwrite_streamEPS4_NS_13TargetMachine15CodeGenFileTypeEbPNS_17MachineModuleInfoE
   obj:/usr/lib/x86_64-linux-gnu/dri/radeonsi_dri.so
   obj:/usr/lib/x86_64-linux-gnu/dri/radeonsi_dri.so
   obj:/usr/lib/x86_64-linux-gnu/dri/radeonsi_dri.so
   obj:/usr/lib/x86_64-linux-gnu/dri/radeonsi_dri.so
}
{
   <insert_a_suppression_name_here>
   Memcheck:Leak
   match-leak-kinds: reachable
   fun:_Znwm
   obj:/usr/lib/x86_64-linux-gnu/libLLVM-9.so.1
   fun:__pthread_once_slow
   fun:_ZN4llvm26initializeGCModuleInfoPassERNS_12PassRegistryE
   fun:_ZN4llvm17initializeCodeGenERNS_12PassRegistryE
   fun:_ZN4llvm16TargetPassConfigC1ERNS_17LLVMTargetMachineERNS_6legacy15PassManagerBaseE
   fun:_ZN4llvm16GCNTargetMachine16createPassConfigERNS_6legacy15PassManagerBaseE
   fun:_ZN4llvm17LLVMTargetMachine19addPassesToEmitFileERNS_6legacy15PassManagerBaseERNS_17raw_pwrite_streamEPS4_NS_13TargetMachine15CodeGenFileTypeEbPNS_17MachineModuleInfoE
   obj:/usr/lib/x86_64-linux-gnu/dri/radeonsi_dri.so
   obj:/usr/lib/x86_64-linux-gnu/dri/radeonsi_dri.so
   obj:/usr/lib/x86_64-linux-gnu/dri/radeonsi_dri.so
   obj:/usr/lib/x86_64-linux-gnu/dri/radeonsi_dri.so
}
{
   <insert_a_suppression_name_here>
   Memcheck:Leak
   match-leak-kinds: reachable
   fun:_Znwm
   obj:/usr/lib/x86_64-linux-gnu/libLLVM-9.so.1
   fun:__pthread_once_slow
   fun:_ZN4llvm27initializeHardwareLoopsPassERNS_12PassRegistryE
   fun:_ZN4llvm17initializeCodeGenERNS_12PassRegistryE
   fun:_ZN4llvm16TargetPassConfigC1ERNS_17LLVMTargetMachineERNS_6legacy15PassManagerBaseE
   fun:_ZN4llvm16GCNTargetMachine16createPassConfigERNS_6legacy15PassManagerBaseE
   fun:_ZN4llvm17LLVMTargetMachine19addPassesToEmitFileERNS_6legacy15PassManagerBaseERNS_17raw_pwrite_streamEPS4_NS_13TargetMachine15CodeGenFileTypeEbPNS_17MachineModuleInfoE
   obj:/usr/lib/x86_64-linux-gnu/dri/radeonsi_dri.so
   obj:/usr/lib/x86_64-linux-gnu/dri/radeonsi_dri.so
   obj:/usr/lib/x86_64-linux-gnu/dri/radeonsi_dri.so
   obj:/usr/lib/x86_64-linux-gnu/dri/radeonsi_dri.so
}
{
   <insert_a_suppression_name_here>
   Memcheck:Leak
   match-leak-kinds: reachable
   fun:_Znwm
   obj:/usr/lib/x86_64-linux-gnu/libLLVM-9.so.1
   fun:__pthread_once_slow
   fun:_ZN4llvm25initializeIfConverterPassERNS_12PassRegistryE
   fun:_ZN4llvm17initializeCodeGenERNS_12PassRegistryE
   fun:_ZN4llvm16TargetPassConfigC1ERNS_17LLVMTargetMachineERNS_6legacy15PassManagerBaseE
   fun:_ZN4llvm16GCNTargetMachine16createPassConfigERNS_6legacy15PassManagerBaseE
   fun:_ZN4llvm17LLVMTargetMachine19addPassesToEmitFileERNS_6legacy15PassManagerBaseERNS_17raw_pwrite_streamEPS4_NS_13TargetMachine15CodeGenFileTypeEbPNS_17MachineModuleInfoE
   obj:/usr/lib/x86_64-linux-gnu/dri/radeonsi_dri.so
   obj:/usr/lib/x86_64-linux-gnu/dri/radeonsi_dri.so
   obj:/usr/lib/x86_64-linux-gnu/dri/radeonsi_dri.so
   obj:/usr/lib/x86_64-linux-gnu/dri/radeonsi_dri.so
}
{
   <insert_a_suppression_name_here>
   Memcheck:Leak
   match-leak-kinds: reachable
   fun:_Znwm
   obj:/usr/lib/x86_64-linux-gnu/libLLVM-9.so.1
   fun:__pthread_once_slow
   fun:_ZN4llvm32initializeImplicitNullChecksPassERNS_12PassRegistryE
   fun:_ZN4llvm17initializeCodeGenERNS_12PassRegistryE
   fun:_ZN4llvm16TargetPassConfigC1ERNS_17LLVMTargetMachineERNS_6legacy15PassManagerBaseE
   fun:_ZN4llvm16GCNTargetMachine16createPassConfigERNS_6legacy15PassManagerBaseE
   fun:_ZN4llvm17LLVMTargetMachine19addPassesToEmitFileERNS_6legacy15PassManagerBaseERNS_17raw_pwrite_streamEPS4_NS_13TargetMachine15CodeGenFileTypeEbPNS_17MachineModuleInfoE
   obj:/usr/lib/x86_64-linux-gnu/dri/radeonsi_dri.so
   obj:/usr/lib/x86_64-linux-gnu/dri/radeonsi_dri.so
   obj:/usr/lib/x86_64-linux-gnu/dri/radeonsi_dri.so
   obj:/usr/lib/x86_64-linux-gnu/dri/radeonsi_dri.so
}
{
   <insert_a_suppression_name_here>
   Memcheck:Leak
   match-leak-kinds: reachable
   fun:_Znwm
   obj:/usr/lib/x86_64-linux-gnu/libLLVM-9.so.1
   fun:__pthread_once_slow
   fun:_ZN4llvm34initializeIndirectBrExpandPassPassERNS_12PassRegistryE
   fun:_ZN4llvm17initializeCodeGenERNS_12PassRegistryE
   fun:_ZN4llvm16TargetPassConfigC1ERNS_17LLVMTargetMachineERNS_6legacy15PassManagerBaseE
   fun:_ZN4llvm16GCNTargetMachine16createPassConfigERNS_6legacy15PassManagerBaseE
   fun:_ZN4llvm17LLVMTargetMachine19addPassesToEmitFileERNS_6legacy15PassManagerBaseERNS_17raw_pwrite_streamEPS4_NS_13TargetMachine15CodeGenFileTypeEbPNS_17MachineModuleInfoE
   obj:/usr/lib/x86_64-linux-gnu/dri/radeonsi_dri.so
   obj:/usr/lib/x86_64-linux-gnu/dri/radeonsi_dri.so
   obj:/usr/lib/x86_64-linux-gnu/dri/radeonsi_dri.so
   obj:/usr/lib/x86_64-linux-gnu/dri/radeonsi_dri.so
}
{
   <insert_a_suppression_name_here>
   Memcheck:Leak
   match-leak-kinds: reachable
   fun:_Znwm
   obj:/usr/lib/x86_64-linux-gnu/libLLVM-9.so.1
   fun:__pthread_once_slow
   fun:_ZN4llvm36initializeInterleavedLoadCombinePassERNS_12PassRegistryE
   fun:_ZN4llvm17initializeCodeGenERNS_12PassRegistryE
   fun:_ZN4llvm16TargetPassConfigC1ERNS_17LLVMTargetMachineERNS_6legacy15PassManagerBaseE
   fun:_ZN4llvm16GCNTargetMachine16createPassConfigERNS_6legacy15PassManagerBaseE
   fun:_ZN4llvm17LLVMTargetMachine19addPassesToEmitFileERNS_6legacy15PassManagerBaseERNS_17raw_pwrite_streamEPS4_NS_13TargetMachine15CodeGenFileTypeEbPNS_17MachineModuleInfoE
   obj:/usr/lib/x86_64-linux-gnu/dri/radeonsi_dri.so
   obj:/usr/lib/x86_64-linux-gnu/dri/radeonsi_dri.so
   obj:/usr/lib/x86_64-linux-gnu/dri/radeonsi_dri.so
   obj:/usr/lib/x86_64-linux-gnu/dri/radeonsi_dri.so
}
{
   <insert_a_suppression_name_here>
   Memcheck:Leak
   match-leak-kinds: reachable
   fun:_Znwm
   obj:/usr/lib/x86_64-linux-gnu/libLLVM-9.so.1
   fun:__pthread_once_slow
   fun:_ZN4llvm31initializeInterleavedAccessPassERNS_12PassRegistryE
   fun:_ZN4llvm17initializeCodeGenERNS_12PassRegistryE
   fun:_ZN4llvm16TargetPassConfigC1ERNS_17LLVMTargetMachineERNS_6legacy15PassManagerBaseE
   fun:_ZN4llvm16GCNTargetMachine16createPassConfigERNS_6legacy15PassManagerBaseE
   fun:_ZN4llvm17LLVMTargetMachine19addPassesToEmitFileERNS_6legacy15PassManagerBaseERNS_17raw_pwrite_streamEPS4_NS_13TargetMachine15CodeGenFileTypeEbPNS_17MachineModuleInfoE
   obj:/usr/lib/x86_64-linux-gnu/dri/radeonsi_dri.so
   obj:/usr/lib/x86_64-linux-gnu/dri/radeonsi_dri.so
   obj:/usr/lib/x86_64-linux-gnu/dri/radeonsi_dri.so
   obj:/usr/lib/x86_64-linux-gnu/dri/radeonsi_dri.so
}
{
   <insert_a_suppression_name_here>
   Memcheck:Leak
   match-leak-kinds: reachable
   fun:_Znwm
   obj:/usr/lib/x86_64-linux-gnu/libLLVM-9.so.1
   fun:__pthread_once_slow
   fun:_ZN4llvm29initializeLiveDebugValuesPassERNS_12PassRegistryE
   fun:_ZN4llvm17initializeCodeGenERNS_12PassRegistryE
   fun:_ZN4llvm16TargetPassConfigC1ERNS_17LLVMTargetMachineERNS_6legacy15PassManagerBaseE
   fun:_ZN4llvm16GCNTargetMachine16createPassConfigERNS_6legacy15PassManagerBaseE
   fun:_ZN4llvm17LLVMTargetMachine19addPassesToEmitFileERNS_6legacy15PassManagerBaseERNS_17raw_pwrite_streamEPS4_NS_13TargetMachine15CodeGenFileTypeEbPNS_17MachineModuleInfoE
   obj:/usr/lib/x86_64-linux-gnu/dri/radeonsi_dri.so
   obj:/usr/lib/x86_64-linux-gnu/dri/radeonsi_dri.so
   obj:/usr/lib/x86_64-linux-gnu/dri/radeonsi_dri.so
   obj:/usr/lib/x86_64-linux-gnu/dri/radeonsi_dri.so
}
{
   <insert_a_suppression_name_here>
   Memcheck:Leak
   match-leak-kinds: reachable
   fun:_Znwm
   obj:/usr/lib/x86_64-linux-gnu/libLLVM-9.so.1
   fun:__pthread_once_slow
   fun:_ZN4llvm32initializeLiveDebugVariablesPassERNS_12PassRegistryE
   fun:_ZN4llvm17initializeCodeGenERNS_12PassRegistryE
   fun:_ZN4llvm16TargetPassConfigC1ERNS_17LLVMTargetMachineERNS_6legacy15PassManagerBaseE
   fun:_ZN4llvm16GCNTargetMachine16createPassConfigERNS_6legacy15PassManagerBaseE
   fun:_ZN4llvm17LLVMTargetMachine19addPassesToEmitFileERNS_6legacy15PassManagerBaseERNS_17raw_pwrite_streamEPS4_NS_13TargetMachine15CodeGenFileTypeEbPNS_17MachineModuleInfoE
   obj:/usr/lib/x86_64-linux-gnu/dri/radeonsi_dri.so
   obj:/usr/lib/x86_64-linux-gnu/dri/radeonsi_dri.so
   obj:/usr/lib/x86_64-linux-gnu/dri/radeonsi_dri.so
   obj:/usr/lib/x86_64-linux-gnu/dri/radeonsi_dri.so
}
{
   <insert_a_suppression_name_here>
   Memcheck:Leak
   match-leak-kinds: reachable
   fun:_Znwm
   obj:/usr/lib/x86_64-linux-gnu/libLLVM-9.so.1
   fun:__pthread_once_slow
   fun:_ZN4llvm29initializeLiveRangeShrinkPassERNS_12PassRegistryE
   fun:_ZN4llvm17initializeCodeGenERNS_12PassRegistryE
   fun:_ZN4llvm16TargetPassConfigC1ERNS_17LLVMTargetMachineERNS_6legacy15PassManagerBaseE
   fun:_ZN4llvm16GCNTargetMachine16createPassConfigERNS_6legacy15PassManagerBaseE
   fun:_ZN4llvm17LLVMTargetMachine19addPassesToEmitFileERNS_6legacy15PassManagerBaseERNS_17raw_pwrite_streamEPS4_NS_13TargetMachine15CodeGenFileTypeEbPNS_17MachineModuleInfoE
   obj:/usr/lib/x86_64-linux-gnu/dri/radeonsi_dri.so
   obj:/usr/lib/x86_64-linux-gnu/dri/radeonsi_dri.so
   obj:/usr/lib/x86_64-linux-gnu/dri/radeonsi_dri.so
   obj:/usr/lib/x86_64-linux-gnu/dri/radeonsi_dri.so
}
{
   <insert_a_suppression_name_here>
   Memcheck:Leak
   match-leak-kinds: reachable
   fun:_Znwm
   obj:/usr/lib/x86_64-linux-gnu/libLLVM-9.so.1
   fun:__pthread_once_slow
   fun:_ZN4llvm24initializeLiveStacksPassERNS_12PassRegistryE
   fun:_ZN4llvm17initializeCodeGenERNS_12PassRegistryE
   fun:_ZN4llvm16TargetPassConfigC1ERNS_17LLVMTargetMachineERNS_6legacy15PassManagerBaseE
   fun:_ZN4llvm16GCNTargetMachine16createPassConfigERNS_6legacy15PassManagerBaseE
   fun:_ZN4llvm17LLVMTargetMachine19addPassesToEmitFileERNS_6legacy15PassManagerBaseERNS_17raw_pwrite_streamEPS4_NS_13TargetMachine15CodeGenFileTypeEbPNS_17MachineModuleInfoE
   obj:/usr/lib/x86_64-linux-gnu/dri/radeonsi_dri.so
   obj:/usr/lib/x86_64-linux-gnu/dri/radeonsi_dri.so
   obj:/usr/lib/x86_64-linux-gnu/dri/radeonsi_dri.so
   obj:/usr/lib/x86_64-linux-gnu/dri/radeonsi_dri.so
}
{
   <insert_a_suppression_name_here>
   Memcheck:Leak
   match-leak-kinds: reachable
   fun:_Znwm
   obj:/usr/lib/x86_64-linux-gnu/libLLVM-9.so.1
   fun:__pthread_once_slow
   fun:_ZN4llvm41initializeUnreachableMachineBlockElimPassERNS_12PassRegistryE
   obj:/usr/lib/x86_64-linux-gnu/libLLVM-9.so.1
   fun:__pthread_once_slow
   fun:_ZN4llvm27initializeLiveVariablesPassERNS_12PassRegistryE
   fun:_ZN4llvm17initializeCodeGenERNS_12PassRegistryE
   fun:_ZN4llvm16TargetPassConfigC1ERNS_17LLVMTargetMachineERNS_6legacy15PassManagerBaseE
   fun:_ZN4llvm16GCNTargetMachine16createPassConfigERNS_6legacy15PassManagerBaseE
   fun:_ZN4llvm17LLVMTargetMachine19addPassesToEmitFileERNS_6legacy15PassManagerBaseERNS_17raw_pwrite_streamEPS4_NS_13TargetMachine15CodeGenFileTypeEbPNS_17MachineModuleInfoE
   obj:/usr/lib/x86_64-linux-gnu/dri/radeonsi_dri.so
}
{
   <insert_a_suppression_name_here>
   Memcheck:Leak
   match-leak-kinds: reachable
   fun:_Znwm
   obj:/usr/lib/x86_64-linux-gnu/libLLVM-9.so.1
   fun:__pthread_once_slow
   fun:_ZN4llvm27initializeLiveVariablesPassERNS_12PassRegistryE
   fun:_ZN4llvm17initializeCodeGenERNS_12PassRegistryE
   fun:_ZN4llvm16TargetPassConfigC1ERNS_17LLVMTargetMachineERNS_6legacy15PassManagerBaseE
   fun:_ZN4llvm16GCNTargetMachine16createPassConfigERNS_6legacy15PassManagerBaseE
   fun:_ZN4llvm17LLVMTargetMachine19addPassesToEmitFileERNS_6legacy15PassManagerBaseERNS_17raw_pwrite_streamEPS4_NS_13TargetMachine15CodeGenFileTypeEbPNS_17MachineModuleInfoE
   obj:/usr/lib/x86_64-linux-gnu/dri/radeonsi_dri.so
   obj:/usr/lib/x86_64-linux-gnu/dri/radeonsi_dri.so
   obj:/usr/lib/x86_64-linux-gnu/dri/radeonsi_dri.so
   obj:/usr/lib/x86_64-linux-gnu/dri/radeonsi_dri.so
}
{
   <insert_a_suppression_name_here>
   Memcheck:Leak
   match-leak-kinds: reachable
   fun:_Znwm
   obj:/usr/lib/x86_64-linux-gnu/libLLVM-9.so.1
   fun:__pthread_once_slow
   fun:_ZN4llvm32initializeLocalStackSlotPassPassERNS_12PassRegistryE
   fun:_ZN4llvm17initializeCodeGenERNS_12PassRegistryE
   fun:_ZN4llvm16TargetPassConfigC1ERNS_17LLVMTargetMachineERNS_6legacy15PassManagerBaseE
   fun:_ZN4llvm16GCNTargetMachine16createPassConfigERNS_6legacy15PassManagerBaseE
   fun:_ZN4llvm17LLVMTargetMachine19addPassesToEmitFileERNS_6legacy15PassManagerBaseERNS_17raw_pwrite_streamEPS4_NS_13TargetMachine15CodeGenFileTypeEbPNS_17MachineModuleInfoE
   obj:/usr/lib/x86_64-linux-gnu/dri/radeonsi_dri.so
   obj:/usr/lib/x86_64-linux-gnu/dri/radeonsi_dri.so
   obj:/usr/lib/x86_64-linux-gnu/dri/radeonsi_dri.so
   obj:/usr/lib/x86_64-linux-gnu/dri/radeonsi_dri.so
}
{
   <insert_a_suppression_name_here>
   Memcheck:Leak
   match-leak-kinds: reachable
   fun:_Znwm
   obj:/usr/lib/x86_64-linux-gnu/libLLVM-9.so.1
   fun:__pthread_once_slow
   fun:_ZN4llvm29initializeLowerIntrinsicsPassERNS_12PassRegistryE
   fun:_ZN4llvm17initializeCodeGenERNS_12PassRegistryE
   fun:_ZN4llvm16TargetPassConfigC1ERNS_17LLVMTargetMachineERNS_6legacy15PassManagerBaseE
   fun:_ZN4llvm16GCNTargetMachine16createPassConfigERNS_6legacy15PassManagerBaseE
   fun:_ZN4llvm17LLVMTargetMachine19addPassesToEmitFileERNS_6legacy15PassManagerBaseERNS_17raw_pwrite_streamEPS4_NS_13TargetMachine15CodeGenFileTypeEbPNS_17MachineModuleInfoE
   obj:/usr/lib/x86_64-linux-gnu/dri/radeonsi_dri.so
   obj:/usr/lib/x86_64-linux-gnu/dri/radeonsi_dri.so
   obj:/usr/lib/x86_64-linux-gnu/dri/radeonsi_dri.so
   obj:/usr/lib/x86_64-linux-gnu/dri/radeonsi_dri.so
}
{
   <insert_a_suppression_name_here>
   Memcheck:Leak
   match-leak-kinds: reachable
   fun:_Znwm
   obj:/usr/lib/x86_64-linux-gnu/libLLVM-9.so.1
   fun:__pthread_once_slow
   fun:_ZN4llvm30initializeMIRCanonicalizerPassERNS_12PassRegistryE
   fun:_ZN4llvm17initializeCodeGenERNS_12PassRegistryE
   fun:_ZN4llvm16TargetPassConfigC1ERNS_17LLVMTargetMachineERNS_6legacy15PassManagerBaseE
   fun:_ZN4llvm16GCNTargetMachine16createPassConfigERNS_6legacy15PassManagerBaseE
   fun:_ZN4llvm17LLVMTargetMachine19addPassesToEmitFileERNS_6legacy15PassManagerBaseERNS_17raw_pwrite_streamEPS4_NS_13TargetMachine15CodeGenFileTypeEbPNS_17MachineModuleInfoE
   obj:/usr/lib/x86_64-linux-gnu/dri/radeonsi_dri.so
   obj:/usr/lib/x86_64-linux-gnu/dri/radeonsi_dri.so
   obj:/usr/lib/x86_64-linux-gnu/dri/radeonsi_dri.so
   obj:/usr/lib/x86_64-linux-gnu/dri/radeonsi_dri.so
}
{
   <insert_a_suppression_name_here>
   Memcheck:Leak
   match-leak-kinds: reachable
   fun:_Znwm
   obj:/usr/lib/x86_64-linux-gnu/libLLVM-9.so.1
   fun:__pthread_once_slow
   fun:_ZN4llvm35initializeMachineBlockPlacementPassERNS_12PassRegistryE
   fun:_ZN4llvm17initializeCodeGenERNS_12PassRegistryE
   fun:_ZN4llvm16TargetPassConfigC1ERNS_17LLVMTargetMachineERNS_6legacy15PassManagerBaseE
   fun:_ZN4llvm16GCNTargetMachine16createPassConfigERNS_6legacy15PassManagerBaseE
   fun:_ZN4llvm17LLVMTargetMachine19addPassesToEmitFileERNS_6legacy15PassManagerBaseERNS_17raw_pwrite_streamEPS4_NS_13TargetMachine15CodeGenFileTypeEbPNS_17MachineModuleInfoE
   obj:/usr/lib/x86_64-linux-gnu/dri/radeonsi_dri.so
   obj:/usr/lib/x86_64-linux-gnu/dri/radeonsi_dri.so
   obj:/usr/lib/x86_64-linux-gnu/dri/radeonsi_dri.so
   obj:/usr/lib/x86_64-linux-gnu/dri/radeonsi_dri.so
}
{
   <insert_a_suppression_name_here>
   Memcheck:Leak
   match-leak-kinds: reachable
   fun:_Znwm
   obj:/usr/lib/x86_64-linux-gnu/libLLVM-9.so.1
   fun:__pthread_once_slow
   fun:_ZN4llvm40initializeMachineBlockPlacementStatsPassERNS_12PassRegistryE
   fun:_ZN4llvm17initializeCodeGenERNS_12PassRegistryE
   fun:_ZN4llvm16TargetPassConfigC1ERNS_17LLVMTargetMachineERNS_6legacy15PassManagerBaseE
   fun:_ZN4llvm16GCNTargetMachine16createPassConfigERNS_6legacy15PassManagerBaseE
   fun:_ZN4llvm17LLVMTargetMachine19addPassesToEmitFileERNS_6legacy15PassManagerBaseERNS_17raw_pwrite_streamEPS4_NS_13TargetMachine15CodeGenFileTypeEbPNS_17MachineModuleInfoE
   obj:/usr/lib/x86_64-linux-gnu/dri/radeonsi_dri.so
   obj:/usr/lib/x86_64-linux-gnu/dri/radeonsi_dri.so
   obj:/usr/lib/x86_64-linux-gnu/dri/radeonsi_dri.so
   obj:/usr/lib/x86_64-linux-gnu/dri/radeonsi_dri.so
}
{
   <insert_a_suppression_name_here>
   Memcheck:Leak
   match-leak-kinds: reachable
   fun:_Znwm
   obj:/usr/lib/x86_64-linux-gnu/libLLVM-9.so.1
   fun:__pthread_once_slow
   fun:_ZN4llvm24initializeMachineCSEPassERNS_12PassRegistryE
   fun:_ZN4llvm17initializeCodeGenERNS_12PassRegistryE
   fun:_ZN4llvm16TargetPassConfigC1ERNS_17LLVMTargetMachineERNS_6legacy15PassManagerBaseE
   fun:_ZN4llvm16GCNTargetMachine16createPassConfigERNS_6legacy15PassManagerBaseE
   fun:_ZN4llvm17LLVMTargetMachine19addPassesToEmitFileERNS_6legacy15PassManagerBaseERNS_17raw_pwrite_streamEPS4_NS_13TargetMachine15CodeGenFileTypeEbPNS_17MachineModuleInfoE
   obj:/usr/lib/x86_64-linux-gnu/dri/radeonsi_dri.so
   obj:/usr/lib/x86_64-linux-gnu/dri/radeonsi_dri.so
   obj:/usr/lib/x86_64-linux-gnu/dri/radeonsi_dri.so
   obj:/usr/lib/x86_64-linux-gnu/dri/radeonsi_dri.so
}
{
   <insert_a_suppression_name_here>
   Memcheck:Leak
   match-leak-kinds: reachable
   fun:_Znwm
   obj:/usr/lib/x86_64-linux-gnu/libLLVM-9.so.1
   fun:__pthread_once_slow
   fun:_ZN4llvm29initializeMachineCombinerPassERNS_12PassRegistryE
   fun:_ZN4llvm17initializeCodeGenERNS_12PassRegistryE
   fun:_ZN4llvm16TargetPassConfigC1ERNS_17LLVMTargetMachineERNS_6legacy15PassManagerBaseE
   fun:_ZN4llvm16GCNTargetMachine16createPassConfigERNS_6legacy15PassManagerBaseE
   fun:_ZN4llvm17LLVMTargetMachine19addPassesToEmitFileERNS_6legacy15PassManagerBaseERNS_17raw_pwrite_streamEPS4_NS_13TargetMachine15CodeGenFileTypeEbPNS_17MachineModuleInfoE
   obj:/usr/lib/x86_64-linux-gnu/dri/radeonsi_dri.so
   obj:/usr/lib/x86_64-linux-gnu/dri/radeonsi_dri.so
   obj:/usr/lib/x86_64-linux-gnu/dri/radeonsi_dri.so
   obj:/usr/lib/x86_64-linux-gnu/dri/radeonsi_dri.so
}
{
   <insert_a_suppression_name_here>
   Memcheck:Leak
   match-leak-kinds: reachable
   fun:_Znwm
   obj:/usr/lib/x86_64-linux-gnu/libLLVM-9.so.1
   fun:__pthread_once_slow
   fun:_ZN4llvm36initializeMachineCopyPropagationPassERNS_12PassRegistryE
   fun:_ZN4llvm17initializeCodeGenERNS_12PassRegistryE
   fun:_ZN4llvm16TargetPassConfigC1ERNS_17LLVMTargetMachineERNS_6legacy15PassManagerBaseE
   fun:_ZN4llvm16GCNTargetMachine16createPassConfigERNS_6legacy15PassManagerBaseE
   fun:_ZN4llvm17LLVMTargetMachine19addPassesToEmitFileERNS_6legacy15PassManagerBaseERNS_17raw_pwrite_streamEPS4_NS_13TargetMachine15CodeGenFileTypeEbPNS_17MachineModuleInfoE
   obj:/usr/lib/x86_64-linux-gnu/dri/radeonsi_dri.so
   obj:/usr/lib/x86_64-linux-gnu/dri/radeonsi_dri.so
   obj:/usr/lib/x86_64-linux-gnu/dri/radeonsi_dri.so
   obj:/usr/lib/x86_64-linux-gnu/dri/radeonsi_dri.so
}
{
   <insert_a_suppression_name_here>
   Memcheck:Leak
   match-leak-kinds: reachable
   fun:_Znwm
   obj:/usr/lib/x86_64-linux-gnu/libLLVM-9.so.1
   fun:__pthread_once_slow
   fun:_ZN4llvm40initializeMachineFunctionPrinterPassPassERNS_12PassRegistryE
   fun:_ZN4llvm17initializeCodeGenERNS_12PassRegistryE
   fun:_ZN4llvm16TargetPassConfigC1ERNS_17LLVMTargetMachineERNS_6legacy15PassManagerBaseE
   fun:_ZN4llvm16GCNTargetMachine16createPassConfigERNS_6legacy15PassManagerBaseE
   fun:_ZN4llvm17LLVMTargetMachine19addPassesToEmitFileERNS_6legacy15PassManagerBaseERNS_17raw_pwrite_streamEPS4_NS_13TargetMachine15CodeGenFileTypeEbPNS_17MachineModuleInfoE
   obj:/usr/lib/x86_64-linux-gnu/dri/radeonsi_dri.so
   obj:/usr/lib/x86_64-linux-gnu/dri/radeonsi_dri.so
   obj:/usr/lib/x86_64-linux-gnu/dri/radeonsi_dri.so
   obj:/usr/lib/x86_64-linux-gnu/dri/radeonsi_dri.so
}
{
   <insert_a_suppression_name_here>
   Memcheck:Leak
   match-leak-kinds: reachable
   fun:_Znwm
   obj:/usr/lib/x86_64-linux-gnu/libLLVM-9.so.1
   fun:__pthread_once_slow
   fun:_ZN4llvm25initializeMachineLICMPassERNS_12PassRegistryE
   fun:_ZN4llvm17initializeCodeGenERNS_12PassRegistryE
   fun:_ZN4llvm16TargetPassConfigC1ERNS_17LLVMTargetMachineERNS_6legacy15PassManagerBaseE
   fun:_ZN4llvm16GCNTargetMachine16createPassConfigERNS_6legacy15PassManagerBaseE
   fun:_ZN4llvm17LLVMTargetMachine19addPassesToEmitFileERNS_6legacy15PassManagerBaseERNS_17raw_pwrite_streamEPS4_NS_13TargetMachine15CodeGenFileTypeEbPNS_17MachineModuleInfoE
   obj:/usr/lib/x86_64-linux-gnu/dri/radeonsi_dri.so
   obj:/usr/lib/x86_64-linux-gnu/dri/radeonsi_dri.so
   obj:/usr/lib/x86_64-linux-gnu/dri/radeonsi_dri.so
   obj:/usr/lib/x86_64-linux-gnu/dri/radeonsi_dri.so
}
{
   <insert_a_suppression_name_here>
   Memcheck:Leak
   match-leak-kinds: reachable
   fun:_Znwm
   obj:/usr/lib/x86_64-linux-gnu/libLLVM-9.so.1
   fun:__pthread_once_slow
   fun:_ZN4llvm47initializeLazyMachineBlockFrequencyInfoPassPassERNS_12PassRegistryE
   obj:/usr/lib/x86_64-linux-gnu/libLLVM-9.so.1
   fun:__pthread_once_slow
   fun:_ZN4llvm50initializeMachineOptimizationRemarkEmitterPassPassERNS_12PassRegistryE
   fun:_ZN4llvm17initializeCodeGenERNS_12PassRegistryE
   fun:_ZN4llvm16TargetPassConfigC1ERNS_17LLVMTargetMachineERNS_6legacy15PassManagerBaseE
   fun:_ZN4llvm16GCNTargetMachine16createPassConfigERNS_6legacy15PassManagerBaseE
   fun:_ZN4llvm17LLVMTargetMachine19addPassesToEmitFileERNS_6legacy15PassManagerBaseERNS_17raw_pwrite_streamEPS4_NS_13TargetMachine15CodeGenFileTypeEbPNS_17MachineModuleInfoE
   obj:/usr/lib/x86_64-linux-gnu/dri/radeonsi_dri.so
}
{
   <insert_a_suppression_name_here>
   Memcheck:Leak
   match-leak-kinds: reachable
   fun:_Znwm
   obj:/usr/lib/x86_64-linux-gnu/libLLVM-9.so.1
   fun:__pthread_once_slow
   fun:_ZN4llvm50initializeMachineOptimizationRemarkEmitterPassPassERNS_12PassRegistryE
   fun:_ZN4llvm17initializeCodeGenERNS_12PassRegistryE
   fun:_ZN4llvm16TargetPassConfigC1ERNS_17LLVMTargetMachineERNS_6legacy15PassManagerBaseE
   fun:_ZN4llvm16GCNTargetMachine16createPassConfigERNS_6legacy15PassManagerBaseE
   fun:_ZN4llvm17LLVMTargetMachine19addPassesToEmitFileERNS_6legacy15PassManagerBaseERNS_17raw_pwrite_streamEPS4_NS_13TargetMachine15CodeGenFileTypeEbPNS_17MachineModuleInfoE
   obj:/usr/lib/x86_64-linux-gnu/dri/radeonsi_dri.so
   obj:/usr/lib/x86_64-linux-gnu/dri/radeonsi_dri.so
   obj:/usr/lib/x86_64-linux-gnu/dri/radeonsi_dri.so
   obj:/usr/lib/x86_64-linux-gnu/dri/radeonsi_dri.so
}
{
   <insert_a_suppression_name_here>
   Memcheck:Leak
   match-leak-kinds: reachable
   fun:_Znwm
   obj:/usr/lib/x86_64-linux-gnu/libLLVM-9.so.1
   fun:__pthread_once_slow
   fun:_ZN4llvm29initializeMachineOutlinerPassERNS_12PassRegistryE
   fun:_ZN4llvm17initializeCodeGenERNS_12PassRegistryE
   fun:_ZN4llvm16TargetPassConfigC1ERNS_17LLVMTargetMachineERNS_6legacy15PassManagerBaseE
   fun:_ZN4llvm16GCNTargetMachine16createPassConfigERNS_6legacy15PassManagerBaseE
   fun:_ZN4llvm17LLVMTargetMachine19addPassesToEmitFileERNS_6legacy15PassManagerBaseERNS_17raw_pwrite_streamEPS4_NS_13TargetMachine15CodeGenFileTypeEbPNS_17MachineModuleInfoE
   obj:/usr/lib/x86_64-linux-gnu/dri/radeonsi_dri.so
   obj:/usr/lib/x86_64-linux-gnu/dri/radeonsi_dri.so
   obj:/usr/lib/x86_64-linux-gnu/dri/radeonsi_dri.so
   obj:/usr/lib/x86_64-linux-gnu/dri/radeonsi_dri.so
}
{
   <insert_a_suppression_name_here>
   Memcheck:Leak
   match-leak-kinds: reachable
   fun:_Znwm
   obj:/usr/lib/x86_64-linux-gnu/libLLVM-9.so.1
   fun:__pthread_once_slow
   fun:_ZN4llvm30initializeMachinePipelinerPassERNS_12PassRegistryE
   fun:_ZN4llvm17initializeCodeGenERNS_12PassRegistryE
   fun:_ZN4llvm16TargetPassConfigC1ERNS_17LLVMTargetMachineERNS_6legacy15PassManagerBaseE
   fun:_ZN4llvm16GCNTargetMachine16createPassConfigERNS_6legacy15PassManagerBaseE
   fun:_ZN4llvm17LLVMTargetMachine19addPassesToEmitFileERNS_6legacy15PassManagerBaseERNS_17raw_pwrite_streamEPS4_NS_13TargetMachine15CodeGenFileTypeEbPNS_17MachineModuleInfoE
   obj:/usr/lib/x86_64-linux-gnu/dri/radeonsi_dri.so
   obj:/usr/lib/x86_64-linux-gnu/dri/radeonsi_dri.so
   obj:/usr/lib/x86_64-linux-gnu/dri/radeonsi_dri.so
   obj:/usr/lib/x86_64-linux-gnu/dri/radeonsi_dri.so
}
{
   <insert_a_suppression_name_here>
   Memcheck:Leak
   match-leak-kinds: reachable
   fun:_Znwm
   obj:/usr/lib/x86_64-linux-gnu/libLLVM-9.so.1
   fun:__pthread_once_slow
   fun:_ZN4llvm38initializeMachineDominanceFrontierPassERNS_12PassRegistryE
   obj:/usr/lib/x86_64-linux-gnu/libLLVM-9.so.1
   fun:__pthread_once_slow
   fun:_ZN4llvm35initializeMachineRegionInfoPassPassERNS_12PassRegistryE
   fun:_ZN4llvm17initializeCodeGenERNS_12PassRegistryE
   fun:_ZN4llvm16TargetPassConfigC1ERNS_17LLVMTargetMachineERNS_6legacy15PassManagerBaseE
   fun:_ZN4llvm16GCNTargetMachine16createPassConfigERNS_6legacy15PassManagerBaseE
   fun:_ZN4llvm17LLVMTargetMachine19addPassesToEmitFileERNS_6legacy15PassManagerBaseERNS_17raw_pwrite_streamEPS4_NS_13TargetMachine15CodeGenFileTypeEbPNS_17MachineModuleInfoE
   obj:/usr/lib/x86_64-linux-gnu/dri/radeonsi_dri.so
}
{
   <insert_a_suppression_name_here>
   Memcheck:Leak
   match-leak-kinds: reachable
   fun:_Znwm
   obj:/usr/lib/x86_64-linux-gnu/libLLVM-9.so.1
   fun:__pthread_once_slow
   fun:_ZN4llvm35initializeMachineRegionInfoPassPassERNS_12PassRegistryE
   fun:_ZN4llvm17initializeCodeGenERNS_12PassRegistryE
   fun:_ZN4llvm16TargetPassConfigC1ERNS_17LLVMTargetMachineERNS_6legacy15PassManagerBaseE
   fun:_ZN4llvm16GCNTargetMachine16createPassConfigERNS_6legacy15PassManagerBaseE
   fun:_ZN4llvm17LLVMTargetMachine19addPassesToEmitFileERNS_6legacy15PassManagerBaseERNS_17raw_pwrite_streamEPS4_NS_13TargetMachine15CodeGenFileTypeEbPNS_17MachineModuleInfoE
   obj:/usr/lib/x86_64-linux-gnu/dri/radeonsi_dri.so
   obj:/usr/lib/x86_64-linux-gnu/dri/radeonsi_dri.so
   obj:/usr/lib/x86_64-linux-gnu/dri/radeonsi_dri.so
   obj:/usr/lib/x86_64-linux-gnu/dri/radeonsi_dri.so
}
{
   <insert_a_suppression_name_here>
   Memcheck:Leak
   match-leak-kinds: reachable
   fun:_Znwm
   obj:/usr/lib/x86_64-linux-gnu/libLLVM-9.so.1
   fun:__pthread_once_slow
   fun:_ZN4llvm30initializeMachineSchedulerPassERNS_12PassRegistryE
   fun:_ZN4llvm17initializeCodeGenERNS_12PassRegistryE
   fun:_ZN4llvm16TargetPassConfigC1ERNS_17LLVMTargetMachineERNS_6legacy15PassManagerBaseE
   fun:_ZN4llvm16GCNTargetMachine16createPassConfigERNS_6legacy15PassManagerBaseE
   fun:_ZN4llvm17LLVMTargetMachine19addPassesToEmitFileERNS_6legacy15PassManagerBaseERNS_17raw_pwrite_streamEPS4_NS_13TargetMachine15CodeGenFileTypeEbPNS_17MachineModuleInfoE
   obj:/usr/lib/x86_64-linux-gnu/dri/radeonsi_dri.so
   obj:/usr/lib/x86_64-linux-gnu/dri/radeonsi_dri.so
   obj:/usr/lib/x86_64-linux-gnu/dri/radeonsi_dri.so
   obj:/usr/lib/x86_64-linux-gnu/dri/radeonsi_dri.so
}
{
   <insert_a_suppression_name_here>
   Memcheck:Leak
   match-leak-kinds: reachable
   fun:_Znwm
   obj:/usr/lib/x86_64-linux-gnu/libLLVM-9.so.1
   fun:__pthread_once_slow
   fun:_ZN4llvm28initializeMachineSinkingPassERNS_12PassRegistryE
   fun:_ZN4llvm17initializeCodeGenERNS_12PassRegistryE
   fun:_ZN4llvm16TargetPassConfigC1ERNS_17LLVMTargetMachineERNS_6legacy15PassManagerBaseE
   fun:_ZN4llvm16GCNTargetMachine16createPassConfigERNS_6legacy15PassManagerBaseE
   fun:_ZN4llvm17LLVMTargetMachine19addPassesToEmitFileERNS_6legacy15PassManagerBaseERNS_17raw_pwrite_streamEPS4_NS_13TargetMachine15CodeGenFileTypeEbPNS_17MachineModuleInfoE
   obj:/usr/lib/x86_64-linux-gnu/dri/radeonsi_dri.so
   obj:/usr/lib/x86_64-linux-gnu/dri/radeonsi_dri.so
   obj:/usr/lib/x86_64-linux-gnu/dri/radeonsi_dri.so
   obj:/usr/lib/x86_64-linux-gnu/dri/radeonsi_dri.so
}
{
   <insert_a_suppression_name_here>
   Memcheck:Leak
   match-leak-kinds: reachable
   fun:_Znwm
   obj:/usr/lib/x86_64-linux-gnu/libLLVM-9.so.1
   fun:__pthread_once_slow
   fun:_ZN4llvm33initializeMachineVerifierPassPassERNS_12PassRegistryE
   fun:_ZN4llvm17initializeCodeGenERNS_12PassRegistryE
   fun:_ZN4llvm16TargetPassConfigC1ERNS_17LLVMTargetMachineERNS_6legacy15PassManagerBaseE
   fun:_ZN4llvm16GCNTargetMachine16createPassConfigERNS_6legacy15PassManagerBaseE
   fun:_ZN4llvm17LLVMTargetMachine19addPassesToEmitFileERNS_6legacy15PassManagerBaseERNS_17raw_pwrite_streamEPS4_NS_13TargetMachine15CodeGenFileTypeEbPNS_17MachineModuleInfoE
   obj:/usr/lib/x86_64-linux-gnu/dri/radeonsi_dri.so
   obj:/usr/lib/x86_64-linux-gnu/dri/radeonsi_dri.so
   obj:/usr/lib/x86_64-linux-gnu/dri/radeonsi_dri.so
   obj:/usr/lib/x86_64-linux-gnu/dri/radeonsi_dri.so
}
{
   <insert_a_suppression_name_here>
   Memcheck:Leak
   match-leak-kinds: reachable
   fun:_Znwm
   obj:/usr/lib/x86_64-linux-gnu/libLLVM-9.so.1
   fun:__pthread_once_slow
   fun:_ZN4llvm26initializeOptimizePHIsPassERNS_12PassRegistryE
   fun:_ZN4llvm17initializeCodeGenERNS_12PassRegistryE
   fun:_ZN4llvm16TargetPassConfigC1ERNS_17LLVMTargetMachineERNS_6legacy15PassManagerBaseE
   fun:_ZN4llvm16GCNTargetMachine16createPassConfigERNS_6legacy15PassManagerBaseE
   fun:_ZN4llvm17LLVMTargetMachine19addPassesToEmitFileERNS_6legacy15PassManagerBaseERNS_17raw_pwrite_streamEPS4_NS_13TargetMachine15CodeGenFileTypeEbPNS_17MachineModuleInfoE
   obj:/usr/lib/x86_64-linux-gnu/dri/radeonsi_dri.so
   obj:/usr/lib/x86_64-linux-gnu/dri/radeonsi_dri.so
   obj:/usr/lib/x86_64-linux-gnu/dri/radeonsi_dri.so
   obj:/usr/lib/x86_64-linux-gnu/dri/radeonsi_dri.so
}
{
   <insert_a_suppression_name_here>
   Memcheck:Leak
   match-leak-kinds: reachable
   fun:_Znwm
   obj:/usr/lib/x86_64-linux-gnu/libLLVM-9.so.1
   fun:__pthread_once_slow
   fun:_ZN4llvm17initializePEIPassERNS_12PassRegistryE
   fun:_ZN4llvm17initializeCodeGenERNS_12PassRegistryE
   fun:_ZN4llvm16TargetPassConfigC1ERNS_17LLVMTargetMachineERNS_6legacy15PassManagerBaseE
   fun:_ZN4llvm16GCNTargetMachine16createPassConfigERNS_6legacy15PassManagerBaseE
   fun:_ZN4llvm17LLVMTargetMachine19addPassesToEmitFileERNS_6legacy15PassManagerBaseERNS_17raw_pwrite_streamEPS4_NS_13TargetMachine15CodeGenFileTypeEbPNS_17MachineModuleInfoE
   obj:/usr/lib/x86_64-linux-gnu/dri/radeonsi_dri.so
   obj:/usr/lib/x86_64-linux-gnu/dri/radeonsi_dri.so
   obj:/usr/lib/x86_64-linux-gnu/dri/radeonsi_dri.so
   obj:/usr/lib/x86_64-linux-gnu/dri/radeonsi_dri.so
}
{
   <insert_a_suppression_name_here>
   Memcheck:Leak
   match-leak-kinds: reachable
   fun:_Znwm
   obj:/usr/lib/x86_64-linux-gnu/libLLVM-9.so.1
   fun:__pthread_once_slow
   fun:_ZN4llvm28initializePHIEliminationPassERNS_12PassRegistryE
   fun:_ZN4llvm17initializeCodeGenERNS_12PassRegistryE
   fun:_ZN4llvm16TargetPassConfigC1ERNS_17LLVMTargetMachineERNS_6legacy15PassManagerBaseE
   fun:_ZN4llvm16GCNTargetMachine16createPassConfigERNS_6legacy15PassManagerBaseE
   fun:_ZN4llvm17LLVMTargetMachine19addPassesToEmitFileERNS_6legacy15PassManagerBaseERNS_17raw_pwrite_streamEPS4_NS_13TargetMachine15CodeGenFileTypeEbPNS_17MachineModuleInfoE
   obj:/usr/lib/x86_64-linux-gnu/dri/radeonsi_dri.so
   obj:/usr/lib/x86_64-linux-gnu/dri/radeonsi_dri.so
   obj:/usr/lib/x86_64-linux-gnu/dri/radeonsi_dri.so
   obj:/usr/lib/x86_64-linux-gnu/dri/radeonsi_dri.so
}
{
   <insert_a_suppression_name_here>
   Memcheck:Leak
   match-leak-kinds: reachable
   fun:_Znwm
   obj:/usr/lib/x86_64-linux-gnu/libLLVM-9.so.1
   fun:__pthread_once_slow
   fun:_ZN4llvm31initializePatchableFunctionPassERNS_12PassRegistryE
   fun:_ZN4llvm17initializeCodeGenERNS_12PassRegistryE
   fun:_ZN4llvm16TargetPassConfigC1ERNS_17LLVMTargetMachineERNS_6legacy15PassManagerBaseE
   fun:_ZN4llvm16GCNTargetMachine16createPassConfigERNS_6legacy15PassManagerBaseE
   fun:_ZN4llvm17LLVMTargetMachine19addPassesToEmitFileERNS_6legacy15PassManagerBaseERNS_17raw_pwrite_streamEPS4_NS_13TargetMachine15CodeGenFileTypeEbPNS_17MachineModuleInfoE
   obj:/usr/lib/x86_64-linux-gnu/dri/radeonsi_dri.so
   obj:/usr/lib/x86_64-linux-gnu/dri/radeonsi_dri.so
   obj:/usr/lib/x86_64-linux-gnu/dri/radeonsi_dri.so
   obj:/usr/lib/x86_64-linux-gnu/dri/radeonsi_dri.so
}
{
   <insert_a_suppression_name_here>
   Memcheck:Leak
   match-leak-kinds: reachable
   fun:_Znwm
   obj:/usr/lib/x86_64-linux-gnu/libLLVM-9.so.1
   fun:__pthread_once_slow
   fun:_ZN4llvm31initializePeepholeOptimizerPassERNS_12PassRegistryE
   fun:_ZN4llvm17initializeCodeGenERNS_12PassRegistryE
   fun:_ZN4llvm16TargetPassConfigC1ERNS_17LLVMTargetMachineERNS_6legacy15PassManagerBaseE
   fun:_ZN4llvm16GCNTargetMachine16createPassConfigERNS_6legacy15PassManagerBaseE
   fun:_ZN4llvm17LLVMTargetMachine19addPassesToEmitFileERNS_6legacy15PassManagerBaseERNS_17raw_pwrite_streamEPS4_NS_13TargetMachine15CodeGenFileTypeEbPNS_17MachineModuleInfoE
   obj:/usr/lib/x86_64-linux-gnu/dri/radeonsi_dri.so
   obj:/usr/lib/x86_64-linux-gnu/dri/radeonsi_dri.so
   obj:/usr/lib/x86_64-linux-gnu/dri/radeonsi_dri.so
   obj:/usr/lib/x86_64-linux-gnu/dri/radeonsi_dri.so
}
{
   <insert_a_suppression_name_here>
   Memcheck:Leak
   match-leak-kinds: reachable
   fun:_Znwm
   obj:/usr/lib/x86_64-linux-gnu/libLLVM-9.so.1
   fun:__pthread_once_slow
   fun:_ZN4llvm34initializePostMachineSchedulerPassERNS_12PassRegistryE
   fun:_ZN4llvm17initializeCodeGenERNS_12PassRegistryE
   fun:_ZN4llvm16TargetPassConfigC1ERNS_17LLVMTargetMachineERNS_6legacy15PassManagerBaseE
   fun:_ZN4llvm16GCNTargetMachine16createPassConfigERNS_6legacy15PassManagerBaseE
   fun:_ZN4llvm17LLVMTargetMachine19addPassesToEmitFileERNS_6legacy15PassManagerBaseERNS_17raw_pwrite_streamEPS4_NS_13TargetMachine15CodeGenFileTypeEbPNS_17MachineModuleInfoE
   obj:/usr/lib/x86_64-linux-gnu/dri/radeonsi_dri.so
   obj:/usr/lib/x86_64-linux-gnu/dri/radeonsi_dri.so
   obj:/usr/lib/x86_64-linux-gnu/dri/radeonsi_dri.so
   obj:/usr/lib/x86_64-linux-gnu/dri/radeonsi_dri.so
}
{
   <insert_a_suppression_name_here>
   Memcheck:Leak
   match-leak-kinds: reachable
   fun:_Znwm
   obj:/usr/lib/x86_64-linux-gnu/libLLVM-9.so.1
   fun:__pthread_once_slow
   fun:_ZN4llvm36initializePostRAHazardRecognizerPassERNS_12PassRegistryE
   fun:_ZN4llvm17initializeCodeGenERNS_12PassRegistryE
   fun:_ZN4llvm16TargetPassConfigC1ERNS_17LLVMTargetMachineERNS_6legacy15PassManagerBaseE
   fun:_ZN4llvm16GCNTargetMachine16createPassConfigERNS_6legacy15PassManagerBaseE
   fun:_ZN4llvm17LLVMTargetMachine19addPassesToEmitFileERNS_6legacy15PassManagerBaseERNS_17raw_pwrite_streamEPS4_NS_13TargetMachine15CodeGenFileTypeEbPNS_17MachineModuleInfoE
   obj:/usr/lib/x86_64-linux-gnu/dri/radeonsi_dri.so
   obj:/usr/lib/x86_64-linux-gnu/dri/radeonsi_dri.so
   obj:/usr/lib/x86_64-linux-gnu/dri/radeonsi_dri.so
   obj:/usr/lib/x86_64-linux-gnu/dri/radeonsi_dri.so
}
{
   <insert_a_suppression_name_here>
   Memcheck:Leak
   match-leak-kinds: reachable
   fun:_Znwm
   obj:/usr/lib/x86_64-linux-gnu/libLLVM-9.so.1
   fun:__pthread_once_slow
   fun:_ZN4llvm34initializePostRAMachineSinkingPassERNS_12PassRegistryE
   fun:_ZN4llvm17initializeCodeGenERNS_12PassRegistryE
   fun:_ZN4llvm16TargetPassConfigC1ERNS_17LLVMTargetMachineERNS_6legacy15PassManagerBaseE
   fun:_ZN4llvm16GCNTargetMachine16createPassConfigERNS_6legacy15PassManagerBaseE
   fun:_ZN4llvm17LLVMTargetMachine19addPassesToEmitFileERNS_6legacy15PassManagerBaseERNS_17raw_pwrite_streamEPS4_NS_13TargetMachine15CodeGenFileTypeEbPNS_17MachineModuleInfoE
   obj:/usr/lib/x86_64-linux-gnu/dri/radeonsi_dri.so
   obj:/usr/lib/x86_64-linux-gnu/dri/radeonsi_dri.so
   obj:/usr/lib/x86_64-linux-gnu/dri/radeonsi_dri.so
   obj:/usr/lib/x86_64-linux-gnu/dri/radeonsi_dri.so
}
{
   <insert_a_suppression_name_here>
   Memcheck:Leak
   match-leak-kinds: reachable
   fun:_Znwm
   obj:/usr/lib/x86_64-linux-gnu/libLLVM-9.so.1
   fun:__pthread_once_slow
   fun:_ZN4llvm29initializePostRASchedulerPassERNS_12PassRegistryE
   fun:_ZN4llvm17initializeCodeGenERNS_12PassRegistryE
   fun:_ZN4llvm16TargetPassConfigC1ERNS_17LLVMTargetMachineERNS_6legacy15PassManagerBaseE
   fun:_ZN4llvm16GCNTargetMachine16createPassConfigERNS_6legacy15PassManagerBaseE
   fun:_ZN4llvm17LLVMTargetMachine19addPassesToEmitFileERNS_6legacy15PassManagerBaseERNS_17raw_pwrite_streamEPS4_NS_13TargetMachine15CodeGenFileTypeEbPNS_17MachineModuleInfoE
   obj:/usr/lib/x86_64-linux-gnu/dri/radeonsi_dri.so
   obj:/usr/lib/x86_64-linux-gnu/dri/radeonsi_dri.so
   obj:/usr/lib/x86_64-linux-gnu/dri/radeonsi_dri.so
   obj:/usr/lib/x86_64-linux-gnu/dri/radeonsi_dri.so
}
{
   <insert_a_suppression_name_here>
   Memcheck:Leak
   match-leak-kinds: reachable
   fun:_Znwm
   obj:/usr/lib/x86_64-linux-gnu/libLLVM-9.so.1
   fun:__pthread_once_slow
   fun:_ZN4llvm48initializePreISelIntrinsicLoweringLegacyPassPassERNS_12PassRegistryE
   fun:_ZN4llvm17initializeCodeGenERNS_12PassRegistryE
   fun:_ZN4llvm16TargetPassConfigC1ERNS_17LLVMTargetMachineERNS_6legacy15PassManagerBaseE
   fun:_ZN4llvm16GCNTargetMachine16createPassConfigERNS_6legacy15PassManagerBaseE
   fun:_ZN4llvm17LLVMTargetMachine19addPassesToEmitFileERNS_6legacy15PassManagerBaseERNS_17raw_pwrite_streamEPS4_NS_13TargetMachine15CodeGenFileTypeEbPNS_17MachineModuleInfoE
   obj:/usr/lib/x86_64-linux-gnu/dri/radeonsi_dri.so
   obj:/usr/lib/x86_64-linux-gnu/dri/radeonsi_dri.so
   obj:/usr/lib/x86_64-linux-gnu/dri/radeonsi_dri.so
   obj:/usr/lib/x86_64-linux-gnu/dri/radeonsi_dri.so
}
{
   <insert_a_suppression_name_here>
   Memcheck:Leak
   match-leak-kinds: reachable
   fun:_Znwm
   obj:/usr/lib/x86_64-linux-gnu/libLLVM-9.so.1
   fun:__pthread_once_slow
   fun:_ZN4llvm33initializeProcessImplicitDefsPassERNS_12PassRegistryE
   fun:_ZN4llvm17initializeCodeGenERNS_12PassRegistryE
   fun:_ZN4llvm16TargetPassConfigC1ERNS_17LLVMTargetMachineERNS_6legacy15PassManagerBaseE
   fun:_ZN4llvm16GCNTargetMachine16createPassConfigERNS_6legacy15PassManagerBaseE
   fun:_ZN4llvm17LLVMTargetMachine19addPassesToEmitFileERNS_6legacy15PassManagerBaseERNS_17raw_pwrite_streamEPS4_NS_13TargetMachine15CodeGenFileTypeEbPNS_17MachineModuleInfoE
   obj:/usr/lib/x86_64-linux-gnu/dri/radeonsi_dri.so
   obj:/usr/lib/x86_64-linux-gnu/dri/radeonsi_dri.so
   obj:/usr/lib/x86_64-linux-gnu/dri/radeonsi_dri.so
   obj:/usr/lib/x86_64-linux-gnu/dri/radeonsi_dri.so
}
{
   <insert_a_suppression_name_here>
   Memcheck:Leak
   match-leak-kinds: reachable
   fun:_Znwm
   obj:/usr/lib/x86_64-linux-gnu/libLLVM-9.so.1
   fun:__pthread_once_slow
   fun:_ZN4llvm31initializeRegisterCoalescerPassERNS_12PassRegistryE
   obj:/usr/lib/x86_64-linux-gnu/libLLVM-9.so.1
   fun:__pthread_once_slow
   fun:_ZN4llvm21initializeRABasicPassERNS_12PassRegistryE
   fun:_ZN4llvm17initializeCodeGenERNS_12PassRegistryE
   fun:_ZN4llvm16TargetPassConfigC1ERNS_17LLVMTargetMachineERNS_6legacy15PassManagerBaseE
   fun:_ZN4llvm16GCNTargetMachine16createPassConfigERNS_6legacy15PassManagerBaseE
   fun:_ZN4llvm17LLVMTargetMachine19addPassesToEmitFileERNS_6legacy15PassManagerBaseERNS_17raw_pwrite_streamEPS4_NS_13TargetMachine15CodeGenFileTypeEbPNS_17MachineModuleInfoE
   obj:/usr/lib/x86_64-linux-gnu/dri/radeonsi_dri.so
}
{
   <insert_a_suppression_name_here>
   Memcheck:Leak
   match-leak-kinds: reachable
   fun:_Znwm
   obj:/usr/lib/x86_64-linux-gnu/libLLVM-9.so.1
   fun:__pthread_once_slow
   fun:_ZN4llvm21initializeRABasicPassERNS_12PassRegistryE
   fun:_ZN4llvm17initializeCodeGenERNS_12PassRegistryE
   fun:_ZN4llvm16TargetPassConfigC1ERNS_17LLVMTargetMachineERNS_6legacy15PassManagerBaseE
   fun:_ZN4llvm16GCNTargetMachine16createPassConfigERNS_6legacy15PassManagerBaseE
   fun:_ZN4llvm17LLVMTargetMachine19addPassesToEmitFileERNS_6legacy15PassManagerBaseERNS_17raw_pwrite_streamEPS4_NS_13TargetMachine15CodeGenFileTypeEbPNS_17MachineModuleInfoE
   obj:/usr/lib/x86_64-linux-gnu/dri/radeonsi_dri.so
   obj:/usr/lib/x86_64-linux-gnu/dri/radeonsi_dri.so
   obj:/usr/lib/x86_64-linux-gnu/dri/radeonsi_dri.so
   obj:/usr/lib/x86_64-linux-gnu/dri/radeonsi_dri.so
}
{
   <insert_a_suppression_name_here>
   Memcheck:Leak
   match-leak-kinds: reachable
   fun:_Znwm
   obj:/usr/lib/x86_64-linux-gnu/libLLVM-9.so.1
   fun:__pthread_once_slow
   fun:_ZN4llvm25initializeEdgeBundlesPassERNS_12PassRegistryE
   obj:/usr/lib/x86_64-linux-gnu/libLLVM-9.so.1
   fun:__pthread_once_slow
   fun:_ZN4llvm22initializeRAGreedyPassERNS_12PassRegistryE
   fun:_ZN4llvm17initializeCodeGenERNS_12PassRegistryE
   fun:_ZN4llvm16TargetPassConfigC1ERNS_17LLVMTargetMachineERNS_6legacy15PassManagerBaseE
   fun:_ZN4llvm16GCNTargetMachine16createPassConfigERNS_6legacy15PassManagerBaseE
   fun:_ZN4llvm17LLVMTargetMachine19addPassesToEmitFileERNS_6legacy15PassManagerBaseERNS_17raw_pwrite_streamEPS4_NS_13TargetMachine15CodeGenFileTypeEbPNS_17MachineModuleInfoE
   obj:/usr/lib/x86_64-linux-gnu/dri/radeonsi_dri.so
}
{
   <insert_a_suppression_name_here>
   Memcheck:Leak
   match-leak-kinds: reachable
   fun:_Znwm
   obj:/usr/lib/x86_64-linux-gnu/libLLVM-9.so.1
   fun:__pthread_once_slow
   fun:_ZN4llvm28initializeSpillPlacementPassERNS_12PassRegistryE
   obj:/usr/lib/x86_64-linux-gnu/libLLVM-9.so.1
   fun:__pthread_once_slow
   fun:_ZN4llvm22initializeRAGreedyPassERNS_12PassRegistryE
   fun:_ZN4llvm17initializeCodeGenERNS_12PassRegistryE
   fun:_ZN4llvm16TargetPassConfigC1ERNS_17LLVMTargetMachineERNS_6legacy15PassManagerBaseE
   fun:_ZN4llvm16GCNTargetMachine16createPassConfigERNS_6legacy15PassManagerBaseE
   fun:_ZN4llvm17LLVMTargetMachine19addPassesToEmitFileERNS_6legacy15PassManagerBaseERNS_17raw_pwrite_streamEPS4_NS_13TargetMachine15CodeGenFileTypeEbPNS_17MachineModuleInfoE
   obj:/usr/lib/x86_64-linux-gnu/dri/radeonsi_dri.so
}
{
   <insert_a_suppression_name_here>
   Memcheck:Leak
   match-leak-kinds: reachable
   fun:_Znwm
   obj:/usr/lib/x86_64-linux-gnu/libLLVM-9.so.1
   fun:__pthread_once_slow
   fun:_ZN4llvm22initializeRAGreedyPassERNS_12PassRegistryE
   fun:_ZN4llvm17initializeCodeGenERNS_12PassRegistryE
   fun:_ZN4llvm16TargetPassConfigC1ERNS_17LLVMTargetMachineERNS_6legacy15PassManagerBaseE
   fun:_ZN4llvm16GCNTargetMachine16createPassConfigERNS_6legacy15PassManagerBaseE
   fun:_ZN4llvm17LLVMTargetMachine19addPassesToEmitFileERNS_6legacy15PassManagerBaseERNS_17raw_pwrite_streamEPS4_NS_13TargetMachine15CodeGenFileTypeEbPNS_17MachineModuleInfoE
   obj:/usr/lib/x86_64-linux-gnu/dri/radeonsi_dri.so
   obj:/usr/lib/x86_64-linux-gnu/dri/radeonsi_dri.so
   obj:/usr/lib/x86_64-linux-gnu/dri/radeonsi_dri.so
   obj:/usr/lib/x86_64-linux-gnu/dri/radeonsi_dri.so
}
{
   <insert_a_suppression_name_here>
   Memcheck:Leak
   match-leak-kinds: reachable
   fun:_Znwm
   obj:/usr/lib/x86_64-linux-gnu/libLLVM-9.so.1
   fun:__pthread_once_slow
   fun:_ZN4llvm26initializeRegAllocFastPassERNS_12PassRegistryE
   fun:_ZN4llvm17initializeCodeGenERNS_12PassRegistryE
   fun:_ZN4llvm16TargetPassConfigC1ERNS_17LLVMTargetMachineERNS_6legacy15PassManagerBaseE
   fun:_ZN4llvm16GCNTargetMachine16createPassConfigERNS_6legacy15PassManagerBaseE
   fun:_ZN4llvm17LLVMTargetMachine19addPassesToEmitFileERNS_6legacy15PassManagerBaseERNS_17raw_pwrite_streamEPS4_NS_13TargetMachine15CodeGenFileTypeEbPNS_17MachineModuleInfoE
   obj:/usr/lib/x86_64-linux-gnu/dri/radeonsi_dri.so
   obj:/usr/lib/x86_64-linux-gnu/dri/radeonsi_dri.so
   obj:/usr/lib/x86_64-linux-gnu/dri/radeonsi_dri.so
   obj:/usr/lib/x86_64-linux-gnu/dri/radeonsi_dri.so
}
{
   <insert_a_suppression_name_here>
   Memcheck:Leak
   match-leak-kinds: reachable
   fun:_Znwm
   obj:/usr/lib/x86_64-linux-gnu/libLLVM-9.so.1
   fun:__pthread_once_slow
   fun:_ZN4llvm39initializePhysicalRegisterUsageInfoPassERNS_12PassRegistryE
   obj:/usr/lib/x86_64-linux-gnu/libLLVM-9.so.1
   fun:__pthread_once_slow
   fun:_ZN4llvm35initializeRegUsageInfoCollectorPassERNS_12PassRegistryE
   fun:_ZN4llvm17initializeCodeGenERNS_12PassRegistryE
   fun:_ZN4llvm16TargetPassConfigC1ERNS_17LLVMTargetMachineERNS_6legacy15PassManagerBaseE
   fun:_ZN4llvm16GCNTargetMachine16createPassConfigERNS_6legacy15PassManagerBaseE
   fun:_ZN4llvm17LLVMTargetMachine19addPassesToEmitFileERNS_6legacy15PassManagerBaseERNS_17raw_pwrite_streamEPS4_NS_13TargetMachine15CodeGenFileTypeEbPNS_17MachineModuleInfoE
   obj:/usr/lib/x86_64-linux-gnu/dri/radeonsi_dri.so
}
{
   <insert_a_suppression_name_here>
   Memcheck:Leak
   match-leak-kinds: reachable
   fun:_Znwm
   obj:/usr/lib/x86_64-linux-gnu/libLLVM-9.so.1
   fun:__pthread_once_slow
   fun:_ZN4llvm35initializeRegUsageInfoCollectorPassERNS_12PassRegistryE
   fun:_ZN4llvm17initializeCodeGenERNS_12PassRegistryE
   fun:_ZN4llvm16TargetPassConfigC1ERNS_17LLVMTargetMachineERNS_6legacy15PassManagerBaseE
   fun:_ZN4llvm16GCNTargetMachine16createPassConfigERNS_6legacy15PassManagerBaseE
   fun:_ZN4llvm17LLVMTargetMachine19addPassesToEmitFileERNS_6legacy15PassManagerBaseERNS_17raw_pwrite_streamEPS4_NS_13TargetMachine15CodeGenFileTypeEbPNS_17MachineModuleInfoE
   obj:/usr/lib/x86_64-linux-gnu/dri/radeonsi_dri.so
   obj:/usr/lib/x86_64-linux-gnu/dri/radeonsi_dri.so
   obj:/usr/lib/x86_64-linux-gnu/dri/radeonsi_dri.so
   obj:/usr/lib/x86_64-linux-gnu/dri/radeonsi_dri.so
}
{
   <insert_a_suppression_name_here>
   Memcheck:Leak
   match-leak-kinds: reachable
   fun:_Znwm
   obj:/usr/lib/x86_64-linux-gnu/libLLVM-9.so.1
   fun:__pthread_once_slow
   fun:_ZN4llvm37initializeRegUsageInfoPropagationPassERNS_12PassRegistryE
   fun:_ZN4llvm17initializeCodeGenERNS_12PassRegistryE
   fun:_ZN4llvm16TargetPassConfigC1ERNS_17LLVMTargetMachineERNS_6legacy15PassManagerBaseE
   fun:_ZN4llvm16GCNTargetMachine16createPassConfigERNS_6legacy15PassManagerBaseE
   fun:_ZN4llvm17LLVMTargetMachine19addPassesToEmitFileERNS_6legacy15PassManagerBaseERNS_17raw_pwrite_streamEPS4_NS_13TargetMachine15CodeGenFileTypeEbPNS_17MachineModuleInfoE
   obj:/usr/lib/x86_64-linux-gnu/dri/radeonsi_dri.so
   obj:/usr/lib/x86_64-linux-gnu/dri/radeonsi_dri.so
   obj:/usr/lib/x86_64-linux-gnu/dri/radeonsi_dri.so
   obj:/usr/lib/x86_64-linux-gnu/dri/radeonsi_dri.so
}
{
   <insert_a_suppression_name_here>
   Memcheck:Leak
   match-leak-kinds: reachable
   fun:_Znwm
   obj:/usr/lib/x86_64-linux-gnu/libLLVM-9.so.1
   fun:__pthread_once_slow
   fun:_ZN4llvm38initializeRenameIndependentSubregsPassERNS_12PassRegistryE
   fun:_ZN4llvm17initializeCodeGenERNS_12PassRegistryE
   fun:_ZN4llvm16TargetPassConfigC1ERNS_17LLVMTargetMachineERNS_6legacy15PassManagerBaseE
   fun:_ZN4llvm16GCNTargetMachine16createPassConfigERNS_6legacy15PassManagerBaseE
   fun:_ZN4llvm17LLVMTargetMachine19addPassesToEmitFileERNS_6legacy15PassManagerBaseERNS_17raw_pwrite_streamEPS4_NS_13TargetMachine15CodeGenFileTypeEbPNS_17MachineModuleInfoE
   obj:/usr/lib/x86_64-linux-gnu/dri/radeonsi_dri.so
   obj:/usr/lib/x86_64-linux-gnu/dri/radeonsi_dri.so
   obj:/usr/lib/x86_64-linux-gnu/dri/radeonsi_dri.so
   obj:/usr/lib/x86_64-linux-gnu/dri/radeonsi_dri.so
}
{
   <insert_a_suppression_name_here>
   Memcheck:Leak
   match-leak-kinds: reachable
   fun:_Znwm
   obj:/usr/lib/x86_64-linux-gnu/libLLVM-9.so.1
   fun:__pthread_once_slow
   fun:_ZN4llvm33initializeSafeStackLegacyPassPassERNS_12PassRegistryE
   fun:_ZN4llvm17initializeCodeGenERNS_12PassRegistryE
   fun:_ZN4llvm16TargetPassConfigC1ERNS_17LLVMTargetMachineERNS_6legacy15PassManagerBaseE
   fun:_ZN4llvm16GCNTargetMachine16createPassConfigERNS_6legacy15PassManagerBaseE
   fun:_ZN4llvm17LLVMTargetMachine19addPassesToEmitFileERNS_6legacy15PassManagerBaseERNS_17raw_pwrite_streamEPS4_NS_13TargetMachine15CodeGenFileTypeEbPNS_17MachineModuleInfoE
   obj:/usr/lib/x86_64-linux-gnu/dri/radeonsi_dri.so
   obj:/usr/lib/x86_64-linux-gnu/dri/radeonsi_dri.so
   obj:/usr/lib/x86_64-linux-gnu/dri/radeonsi_dri.so
   obj:/usr/lib/x86_64-linux-gnu/dri/radeonsi_dri.so
}
{
   <insert_a_suppression_name_here>
   Memcheck:Leak
   match-leak-kinds: reachable
   fun:_Znwm
   obj:/usr/lib/x86_64-linux-gnu/libLLVM-9.so.1
   fun:__pthread_once_slow
   fun:_ZN4llvm38initializeScalarizeMaskedMemIntrinPassERNS_12PassRegistryE
   fun:_ZN4llvm17initializeCodeGenERNS_12PassRegistryE
   fun:_ZN4llvm16TargetPassConfigC1ERNS_17LLVMTargetMachineERNS_6legacy15PassManagerBaseE
   fun:_ZN4llvm16GCNTargetMachine16createPassConfigERNS_6legacy15PassManagerBaseE
   fun:_ZN4llvm17LLVMTargetMachine19addPassesToEmitFileERNS_6legacy15PassManagerBaseERNS_17raw_pwrite_streamEPS4_NS_13TargetMachine15CodeGenFileTypeEbPNS_17MachineModuleInfoE
   obj:/usr/lib/x86_64-linux-gnu/dri/radeonsi_dri.so
   obj:/usr/lib/x86_64-linux-gnu/dri/radeonsi_dri.so
   obj:/usr/lib/x86_64-linux-gnu/dri/radeonsi_dri.so
   obj:/usr/lib/x86_64-linux-gnu/dri/radeonsi_dri.so
}
{
   <insert_a_suppression_name_here>
   Memcheck:Leak
   match-leak-kinds: reachable
   fun:_Znwm
   obj:/usr/lib/x86_64-linux-gnu/libLLVM-9.so.1
   fun:__pthread_once_slow
   fun:_ZN4llvm24initializeShrinkWrapPassERNS_12PassRegistryE
   fun:_ZN4llvm17initializeCodeGenERNS_12PassRegistryE
   fun:_ZN4llvm16TargetPassConfigC1ERNS_17LLVMTargetMachineERNS_6legacy15PassManagerBaseE
   fun:_ZN4llvm16GCNTargetMachine16createPassConfigERNS_6legacy15PassManagerBaseE
   fun:_ZN4llvm17LLVMTargetMachine19addPassesToEmitFileERNS_6legacy15PassManagerBaseERNS_17raw_pwrite_streamEPS4_NS_13TargetMachine15CodeGenFileTypeEbPNS_17MachineModuleInfoE
   obj:/usr/lib/x86_64-linux-gnu/dri/radeonsi_dri.so
   obj:/usr/lib/x86_64-linux-gnu/dri/radeonsi_dri.so
   obj:/usr/lib/x86_64-linux-gnu/dri/radeonsi_dri.so
   obj:/usr/lib/x86_64-linux-gnu/dri/radeonsi_dri.so
}
{
   <insert_a_suppression_name_here>
   Memcheck:Leak
   match-leak-kinds: reachable
   fun:_Znwm
   obj:/usr/lib/x86_64-linux-gnu/libLLVM-9.so.1
   fun:__pthread_once_slow
   fun:_ZN4llvm27initializeStackColoringPassERNS_12PassRegistryE
   fun:_ZN4llvm17initializeCodeGenERNS_12PassRegistryE
   fun:_ZN4llvm16TargetPassConfigC1ERNS_17LLVMTargetMachineERNS_6legacy15PassManagerBaseE
   fun:_ZN4llvm16GCNTargetMachine16createPassConfigERNS_6legacy15PassManagerBaseE
   fun:_ZN4llvm17LLVMTargetMachine19addPassesToEmitFileERNS_6legacy15PassManagerBaseERNS_17raw_pwrite_streamEPS4_NS_13TargetMachine15CodeGenFileTypeEbPNS_17MachineModuleInfoE
   obj:/usr/lib/x86_64-linux-gnu/dri/radeonsi_dri.so
   obj:/usr/lib/x86_64-linux-gnu/dri/radeonsi_dri.so
   obj:/usr/lib/x86_64-linux-gnu/dri/radeonsi_dri.so
   obj:/usr/lib/x86_64-linux-gnu/dri/radeonsi_dri.so
}
{
   <insert_a_suppression_name_here>
   Memcheck:Leak
   match-leak-kinds: reachable
   fun:_Znwm
   obj:/usr/lib/x86_64-linux-gnu/libLLVM-9.so.1
   fun:__pthread_once_slow
   fun:_ZN4llvm30initializeStackMapLivenessPassERNS_12PassRegistryE
   fun:_ZN4llvm17initializeCodeGenERNS_12PassRegistryE
   fun:_ZN4llvm16TargetPassConfigC1ERNS_17LLVMTargetMachineERNS_6legacy15PassManagerBaseE
   fun:_ZN4llvm16GCNTargetMachine16createPassConfigERNS_6legacy15PassManagerBaseE
   fun:_ZN4llvm17LLVMTargetMachine19addPassesToEmitFileERNS_6legacy15PassManagerBaseERNS_17raw_pwrite_streamEPS4_NS_13TargetMachine15CodeGenFileTypeEbPNS_17MachineModuleInfoE
   obj:/usr/lib/x86_64-linux-gnu/dri/radeonsi_dri.so
   obj:/usr/lib/x86_64-linux-gnu/dri/radeonsi_dri.so
   obj:/usr/lib/x86_64-linux-gnu/dri/radeonsi_dri.so
   obj:/usr/lib/x86_64-linux-gnu/dri/radeonsi_dri.so
}
{
   <insert_a_suppression_name_here>
   Memcheck:Leak
   match-leak-kinds: reachable
   fun:_Znwm
   obj:/usr/lib/x86_64-linux-gnu/libLLVM-9.so.1
   fun:__pthread_once_slow
   fun:_ZN4llvm28initializeStackProtectorPassERNS_12PassRegistryE
   fun:_ZN4llvm17initializeCodeGenERNS_12PassRegistryE
   fun:_ZN4llvm16TargetPassConfigC1ERNS_17LLVMTargetMachineERNS_6legacy15PassManagerBaseE
   fun:_ZN4llvm16GCNTargetMachine16createPassConfigERNS_6legacy15PassManagerBaseE
   fun:_ZN4llvm17LLVMTargetMachine19addPassesToEmitFileERNS_6legacy15PassManagerBaseERNS_17raw_pwrite_streamEPS4_NS_13TargetMachine15CodeGenFileTypeEbPNS_17MachineModuleInfoE
   obj:/usr/lib/x86_64-linux-gnu/dri/radeonsi_dri.so
   obj:/usr/lib/x86_64-linux-gnu/dri/radeonsi_dri.so
   obj:/usr/lib/x86_64-linux-gnu/dri/radeonsi_dri.so
   obj:/usr/lib/x86_64-linux-gnu/dri/radeonsi_dri.so
}
{
   <insert_a_suppression_name_here>
   Memcheck:Leak
   match-leak-kinds: reachable
   fun:_Znwm
   obj:/usr/lib/x86_64-linux-gnu/libLLVM-9.so.1
   fun:__pthread_once_slow
   fun:_ZN4llvm31initializeStackSlotColoringPassERNS_12PassRegistryE
   fun:_ZN4llvm17initializeCodeGenERNS_12PassRegistryE
   fun:_ZN4llvm16TargetPassConfigC1ERNS_17LLVMTargetMachineERNS_6legacy15PassManagerBaseE
   fun:_ZN4llvm16GCNTargetMachine16createPassConfigERNS_6legacy15PassManagerBaseE
   fun:_ZN4llvm17LLVMTargetMachine19addPassesToEmitFileERNS_6legacy15PassManagerBaseERNS_17raw_pwrite_streamEPS4_NS_13TargetMachine15CodeGenFileTypeEbPNS_17MachineModuleInfoE
   obj:/usr/lib/x86_64-linux-gnu/dri/radeonsi_dri.so
   obj:/usr/lib/x86_64-linux-gnu/dri/radeonsi_dri.so
   obj:/usr/lib/x86_64-linux-gnu/dri/radeonsi_dri.so
   obj:/usr/lib/x86_64-linux-gnu/dri/radeonsi_dri.so
}
{
   <insert_a_suppression_name_here>
   Memcheck:Leak
   match-leak-kinds: reachable
   fun:_Znwm
   obj:/usr/lib/x86_64-linux-gnu/libLLVM-9.so.1
   fun:__pthread_once_slow
   fun:_ZN4llvm27initializeTailDuplicatePassERNS_12PassRegistryE
   fun:_ZN4llvm17initializeCodeGenERNS_12PassRegistryE
   fun:_ZN4llvm16TargetPassConfigC1ERNS_17LLVMTargetMachineERNS_6legacy15PassManagerBaseE
   fun:_ZN4llvm16GCNTargetMachine16createPassConfigERNS_6legacy15PassManagerBaseE
   fun:_ZN4llvm17LLVMTargetMachine19addPassesToEmitFileERNS_6legacy15PassManagerBaseERNS_17raw_pwrite_streamEPS4_NS_13TargetMachine15CodeGenFileTypeEbPNS_17MachineModuleInfoE
   obj:/usr/lib/x86_64-linux-gnu/dri/radeonsi_dri.so
   obj:/usr/lib/x86_64-linux-gnu/dri/radeonsi_dri.so
   obj:/usr/lib/x86_64-linux-gnu/dri/radeonsi_dri.so
   obj:/usr/lib/x86_64-linux-gnu/dri/radeonsi_dri.so
}
{
   <insert_a_suppression_name_here>
   Memcheck:Leak
   match-leak-kinds: reachable
   fun:_Znwm
   obj:/usr/lib/x86_64-linux-gnu/libLLVM-9.so.1
   fun:__pthread_once_slow
   fun:_ZN4llvm39initializeTwoAddressInstructionPassPassERNS_12PassRegistryE
   fun:_ZN4llvm17initializeCodeGenERNS_12PassRegistryE
   fun:_ZN4llvm16TargetPassConfigC1ERNS_17LLVMTargetMachineERNS_6legacy15PassManagerBaseE
   fun:_ZN4llvm16GCNTargetMachine16createPassConfigERNS_6legacy15PassManagerBaseE
   fun:_ZN4llvm17LLVMTargetMachine19addPassesToEmitFileERNS_6legacy15PassManagerBaseERNS_17raw_pwrite_streamEPS4_NS_13TargetMachine15CodeGenFileTypeEbPNS_17MachineModuleInfoE
   obj:/usr/lib/x86_64-linux-gnu/dri/radeonsi_dri.so
   obj:/usr/lib/x86_64-linux-gnu/dri/radeonsi_dri.so
   obj:/usr/lib/x86_64-linux-gnu/dri/radeonsi_dri.so
   obj:/usr/lib/x86_64-linux-gnu/dri/radeonsi_dri.so
}
{
   <insert_a_suppression_name_here>
   Memcheck:Leak
   match-leak-kinds: reachable
   fun:_Znwm
   obj:/usr/lib/x86_64-linux-gnu/libLLVM-9.so.1
   fun:__pthread_once_slow
   fun:_ZN4llvm34initializeUnpackMachineBundlesPassERNS_12PassRegistryE
   fun:_ZN4llvm17initializeCodeGenERNS_12PassRegistryE
   fun:_ZN4llvm16TargetPassConfigC1ERNS_17LLVMTargetMachineERNS_6legacy15PassManagerBaseE
   fun:_ZN4llvm16GCNTargetMachine16createPassConfigERNS_6legacy15PassManagerBaseE
   fun:_ZN4llvm17LLVMTargetMachine19addPassesToEmitFileERNS_6legacy15PassManagerBaseERNS_17raw_pwrite_streamEPS4_NS_13TargetMachine15CodeGenFileTypeEbPNS_17MachineModuleInfoE
   obj:/usr/lib/x86_64-linux-gnu/dri/radeonsi_dri.so
   obj:/usr/lib/x86_64-linux-gnu/dri/radeonsi_dri.so
   obj:/usr/lib/x86_64-linux-gnu/dri/radeonsi_dri.so
   obj:/usr/lib/x86_64-linux-gnu/dri/radeonsi_dri.so
}
{
   <insert_a_suppression_name_here>
   Memcheck:Leak
   match-leak-kinds: reachable
   fun:_Znwm
   obj:/usr/lib/x86_64-linux-gnu/libLLVM-9.so.1
   fun:__pthread_once_slow
   fun:_ZN4llvm44initializeUnreachableBlockElimLegacyPassPassERNS_12PassRegistryE
   fun:_ZN4llvm17initializeCodeGenERNS_12PassRegistryE
   fun:_ZN4llvm16TargetPassConfigC1ERNS_17LLVMTargetMachineERNS_6legacy15PassManagerBaseE
   fun:_ZN4llvm16GCNTargetMachine16createPassConfigERNS_6legacy15PassManagerBaseE
   fun:_ZN4llvm17LLVMTargetMachine19addPassesToEmitFileERNS_6legacy15PassManagerBaseERNS_17raw_pwrite_streamEPS4_NS_13TargetMachine15CodeGenFileTypeEbPNS_17MachineModuleInfoE
   obj:/usr/lib/x86_64-linux-gnu/dri/radeonsi_dri.so
   obj:/usr/lib/x86_64-linux-gnu/dri/radeonsi_dri.so
   obj:/usr/lib/x86_64-linux-gnu/dri/radeonsi_dri.so
   obj:/usr/lib/x86_64-linux-gnu/dri/radeonsi_dri.so
}
{
   <insert_a_suppression_name_here>
   Memcheck:Leak
   match-leak-kinds: reachable
   fun:_Znwm
   obj:/usr/lib/x86_64-linux-gnu/libLLVM-9.so.1
   fun:__pthread_once_slow
   fun:_ZN4llvm29initializeVirtRegRewriterPassERNS_12PassRegistryE
   fun:_ZN4llvm17initializeCodeGenERNS_12PassRegistryE
   fun:_ZN4llvm16TargetPassConfigC1ERNS_17LLVMTargetMachineERNS_6legacy15PassManagerBaseE
   fun:_ZN4llvm16GCNTargetMachine16createPassConfigERNS_6legacy15PassManagerBaseE
   fun:_ZN4llvm17LLVMTargetMachine19addPassesToEmitFileERNS_6legacy15PassManagerBaseERNS_17raw_pwrite_streamEPS4_NS_13TargetMachine15CodeGenFileTypeEbPNS_17MachineModuleInfoE
   obj:/usr/lib/x86_64-linux-gnu/dri/radeonsi_dri.so
   obj:/usr/lib/x86_64-linux-gnu/dri/radeonsi_dri.so
   obj:/usr/lib/x86_64-linux-gnu/dri/radeonsi_dri.so
   obj:/usr/lib/x86_64-linux-gnu/dri/radeonsi_dri.so
}
{
   <insert_a_suppression_name_here>
   Memcheck:Leak
   match-leak-kinds: reachable
   fun:_Znwm
   obj:/usr/lib/x86_64-linux-gnu/libLLVM-9.so.1
   fun:__pthread_once_slow
   fun:_ZN4llvm27initializeWasmEHPreparePassERNS_12PassRegistryE
   fun:_ZN4llvm17initializeCodeGenERNS_12PassRegistryE
   fun:_ZN4llvm16TargetPassConfigC1ERNS_17LLVMTargetMachineERNS_6legacy15PassManagerBaseE
   fun:_ZN4llvm16GCNTargetMachine16createPassConfigERNS_6legacy15PassManagerBaseE
   fun:_ZN4llvm17LLVMTargetMachine19addPassesToEmitFileERNS_6legacy15PassManagerBaseERNS_17raw_pwrite_streamEPS4_NS_13TargetMachine15CodeGenFileTypeEbPNS_17MachineModuleInfoE
   obj:/usr/lib/x86_64-linux-gnu/dri/radeonsi_dri.so
   obj:/usr/lib/x86_64-linux-gnu/dri/radeonsi_dri.so
   obj:/usr/lib/x86_64-linux-gnu/dri/radeonsi_dri.so
   obj:/usr/lib/x86_64-linux-gnu/dri/radeonsi_dri.so
}
{
   <insert_a_suppression_name_here>
   Memcheck:Leak
   match-leak-kinds: reachable
   fun:_Znwm
   obj:/usr/lib/x86_64-linux-gnu/libLLVM-9.so.1
   fun:__pthread_once_slow
   fun:_ZN4llvm26initializeWinEHPreparePassERNS_12PassRegistryE
   fun:_ZN4llvm17initializeCodeGenERNS_12PassRegistryE
   fun:_ZN4llvm16TargetPassConfigC1ERNS_17LLVMTargetMachineERNS_6legacy15PassManagerBaseE
   fun:_ZN4llvm16GCNTargetMachine16createPassConfigERNS_6legacy15PassManagerBaseE
   fun:_ZN4llvm17LLVMTargetMachine19addPassesToEmitFileERNS_6legacy15PassManagerBaseERNS_17raw_pwrite_streamEPS4_NS_13TargetMachine15CodeGenFileTypeEbPNS_17MachineModuleInfoE
   obj:/usr/lib/x86_64-linux-gnu/dri/radeonsi_dri.so
   obj:/usr/lib/x86_64-linux-gnu/dri/radeonsi_dri.so
   obj:/usr/lib/x86_64-linux-gnu/dri/radeonsi_dri.so
   obj:/usr/lib/x86_64-linux-gnu/dri/radeonsi_dri.so
}
{
   <insert_a_suppression_name_here>
   Memcheck:Leak
   match-leak-kinds: reachable
   fun:_Znwm
   obj:/usr/lib/x86_64-linux-gnu/libLLVM-9.so.1
   fun:__pthread_once_slow
   fun:_ZN4llvm33initializeXRayInstrumentationPassERNS_12PassRegistryE
   fun:_ZN4llvm16TargetPassConfigC1ERNS_17LLVMTargetMachineERNS_6legacy15PassManagerBaseE
   fun:_ZN4llvm16GCNTargetMachine16createPassConfigERNS_6legacy15PassManagerBaseE
   fun:_ZN4llvm17LLVMTargetMachine19addPassesToEmitFileERNS_6legacy15PassManagerBaseERNS_17raw_pwrite_streamEPS4_NS_13TargetMachine15CodeGenFileTypeEbPNS_17MachineModuleInfoE
   obj:/usr/lib/x86_64-linux-gnu/dri/radeonsi_dri.so
   obj:/usr/lib/x86_64-linux-gnu/dri/radeonsi_dri.so
   obj:/usr/lib/x86_64-linux-gnu/dri/radeonsi_dri.so
   obj:/usr/lib/x86_64-linux-gnu/dri/radeonsi_dri.so
   obj:/usr/lib/x86_64-linux-gnu/dri/radeonsi_dri.so
}
{
   <insert_a_suppression_name_here>
   Memcheck:Leak
   match-leak-kinds: reachable
   fun:_Znwm
   obj:/usr/lib/x86_64-linux-gnu/libLLVM-9.so.1
   fun:__pthread_once_slow
   fun:_ZN4llvm36createSeparateConstOffsetFromGEPPassEb
   obj:/usr/lib/x86_64-linux-gnu/libLLVM-9.so.1
   fun:_ZN4llvm16TargetPassConfig13addISelPassesEv
   fun:_ZN4llvm17LLVMTargetMachine19addPassesToEmitFileERNS_6legacy15PassManagerBaseERNS_17raw_pwrite_streamEPS4_NS_13TargetMachine15CodeGenFileTypeEbPNS_17MachineModuleInfoE
   obj:/usr/lib/x86_64-linux-gnu/dri/radeonsi_dri.so
   obj:/usr/lib/x86_64-linux-gnu/dri/radeonsi_dri.so
   obj:/usr/lib/x86_64-linux-gnu/dri/radeonsi_dri.so
   obj:/usr/lib/x86_64-linux-gnu/dri/radeonsi_dri.so
   obj:/usr/lib/x86_64-linux-gnu/dri/radeonsi_dri.so
}
{
   <insert_a_suppression_name_here>
   Memcheck:Leak
   match-leak-kinds: reachable
   fun:_Znwm
   obj:/usr/lib/x86_64-linux-gnu/libLLVM-9.so.1
   fun:__pthread_once_slow
   fun:_ZN4llvm36createStraightLineStrengthReducePassEv
   obj:/usr/lib/x86_64-linux-gnu/libLLVM-9.so.1
   fun:_ZN4llvm16TargetPassConfig13addISelPassesEv
   fun:_ZN4llvm17LLVMTargetMachine19addPassesToEmitFileERNS_6legacy15PassManagerBaseERNS_17raw_pwrite_streamEPS4_NS_13TargetMachine15CodeGenFileTypeEbPNS_17MachineModuleInfoE
   obj:/usr/lib/x86_64-linux-gnu/dri/radeonsi_dri.so
   obj:/usr/lib/x86_64-linux-gnu/dri/radeonsi_dri.so
   obj:/usr/lib/x86_64-linux-gnu/dri/radeonsi_dri.so
   obj:/usr/lib/x86_64-linux-gnu/dri/radeonsi_dri.so
   obj:/usr/lib/x86_64-linux-gnu/dri/radeonsi_dri.so
}
{
   <insert_a_suppression_name_here>
   Memcheck:Leak
   match-leak-kinds: reachable
   fun:_Znwm
   obj:/usr/lib/x86_64-linux-gnu/libLLVM-9.so.1
   fun:__pthread_once_slow
   fun:_ZN4llvm18createEarlyCSEPassEb
   obj:/usr/lib/x86_64-linux-gnu/libLLVM-9.so.1
   fun:_ZN4llvm16TargetPassConfig13addISelPassesEv
   fun:_ZN4llvm17LLVMTargetMachine19addPassesToEmitFileERNS_6legacy15PassManagerBaseERNS_17raw_pwrite_streamEPS4_NS_13TargetMachine15CodeGenFileTypeEbPNS_17MachineModuleInfoE
   obj:/usr/lib/x86_64-linux-gnu/dri/radeonsi_dri.so
   obj:/usr/lib/x86_64-linux-gnu/dri/radeonsi_dri.so
   obj:/usr/lib/x86_64-linux-gnu/dri/radeonsi_dri.so
   obj:/usr/lib/x86_64-linux-gnu/dri/radeonsi_dri.so
   obj:/usr/lib/x86_64-linux-gnu/dri/radeonsi_dri.so
}
{
   <insert_a_suppression_name_here>
   Memcheck:Leak
   match-leak-kinds: reachable
   fun:_Znwm
   obj:/usr/lib/x86_64-linux-gnu/libLLVM-9.so.1
   fun:__pthread_once_slow
   fun:_ZN4llvm25createNaryReassociatePassEv
   obj:/usr/lib/x86_64-linux-gnu/libLLVM-9.so.1
   fun:_ZN4llvm16TargetPassConfig13addISelPassesEv
   fun:_ZN4llvm17LLVMTargetMachine19addPassesToEmitFileERNS_6legacy15PassManagerBaseERNS_17raw_pwrite_streamEPS4_NS_13TargetMachine15CodeGenFileTypeEbPNS_17MachineModuleInfoE
   obj:/usr/lib/x86_64-linux-gnu/dri/radeonsi_dri.so
   obj:/usr/lib/x86_64-linux-gnu/dri/radeonsi_dri.so
   obj:/usr/lib/x86_64-linux-gnu/dri/radeonsi_dri.so
   obj:/usr/lib/x86_64-linux-gnu/dri/radeonsi_dri.so
   obj:/usr/lib/x86_64-linux-gnu/dri/radeonsi_dri.so
}
{
   <insert_a_suppression_name_here>
   Memcheck:Leak
   match-leak-kinds: reachable
   fun:_Znwm
   obj:/usr/lib/x86_64-linux-gnu/libLLVM-9.so.1
   fun:__pthread_once_slow
   fun:_ZN4llvm32initializeIVUsersWrapperPassPassERNS_12PassRegistryE
   obj:/usr/lib/x86_64-linux-gnu/libLLVM-9.so.1
   fun:__pthread_once_slow
   fun:_ZN4llvm28createLoopStrengthReducePassEv
   fun:_ZN4llvm16TargetPassConfig11addIRPassesEv
   obj:/usr/lib/x86_64-linux-gnu/libLLVM-9.so.1
   fun:_ZN4llvm16TargetPassConfig13addISelPassesEv
   fun:_ZN4llvm17LLVMTargetMachine19addPassesToEmitFileERNS_6legacy15PassManagerBaseERNS_17raw_pwrite_streamEPS4_NS_13TargetMachine15CodeGenFileTypeEbPNS_17MachineModuleInfoE
   obj:/usr/lib/x86_64-linux-gnu/dri/radeonsi_dri.so
}
{
   <insert_a_suppression_name_here>
   Memcheck:Leak
   match-leak-kinds: reachable
   fun:_Znwm
   obj:/usr/lib/x86_64-linux-gnu/libLLVM-9.so.1
   fun:__pthread_once_slow
   fun:_ZN4llvm28createLoopStrengthReducePassEv
   fun:_ZN4llvm16TargetPassConfig11addIRPassesEv
   obj:/usr/lib/x86_64-linux-gnu/libLLVM-9.so.1
   fun:_ZN4llvm16TargetPassConfig13addISelPassesEv
   fun:_ZN4llvm17LLVMTargetMachine19addPassesToEmitFileERNS_6legacy15PassManagerBaseERNS_17raw_pwrite_streamEPS4_NS_13TargetMachine15CodeGenFileTypeEbPNS_17MachineModuleInfoE
   obj:/usr/lib/x86_64-linux-gnu/dri/radeonsi_dri.so
   obj:/usr/lib/x86_64-linux-gnu/dri/radeonsi_dri.so
   obj:/usr/lib/x86_64-linux-gnu/dri/radeonsi_dri.so
   obj:/usr/lib/x86_64-linux-gnu/dri/radeonsi_dri.so
}
{
   <insert_a_suppression_name_here>
   Memcheck:Leak
   match-leak-kinds: reachable
   fun:_Znwm
   obj:/usr/lib/x86_64-linux-gnu/libLLVM-9.so.1
   fun:__pthread_once_slow
   fun:_ZN4llvm26createMergeICmpsLegacyPassEv
   fun:_ZN4llvm16TargetPassConfig11addIRPassesEv
   obj:/usr/lib/x86_64-linux-gnu/libLLVM-9.so.1
   fun:_ZN4llvm16TargetPassConfig13addISelPassesEv
   fun:_ZN4llvm17LLVMTargetMachine19addPassesToEmitFileERNS_6legacy15PassManagerBaseERNS_17raw_pwrite_streamEPS4_NS_13TargetMachine15CodeGenFileTypeEbPNS_17MachineModuleInfoE
   obj:/usr/lib/x86_64-linux-gnu/dri/radeonsi_dri.so
   obj:/usr/lib/x86_64-linux-gnu/dri/radeonsi_dri.so
   obj:/usr/lib/x86_64-linux-gnu/dri/radeonsi_dri.so
   obj:/usr/lib/x86_64-linux-gnu/dri/radeonsi_dri.so
}
{
   <insert_a_suppression_name_here>
   Memcheck:Leak
   match-leak-kinds: reachable
   fun:_Znwm
   obj:/usr/lib/x86_64-linux-gnu/libLLVM-9.so.1
   fun:__pthread_once_slow
   fun:_ZN4llvm31createShadowStackGCLoweringPassEv
   fun:_ZN4llvm16TargetPassConfig11addIRPassesEv
   obj:/usr/lib/x86_64-linux-gnu/libLLVM-9.so.1
   fun:_ZN4llvm16TargetPassConfig13addISelPassesEv
   fun:_ZN4llvm17LLVMTargetMachine19addPassesToEmitFileERNS_6legacy15PassManagerBaseERNS_17raw_pwrite_streamEPS4_NS_13TargetMachine15CodeGenFileTypeEbPNS_17MachineModuleInfoE
   obj:/usr/lib/x86_64-linux-gnu/dri/radeonsi_dri.so
   obj:/usr/lib/x86_64-linux-gnu/dri/radeonsi_dri.so
   obj:/usr/lib/x86_64-linux-gnu/dri/radeonsi_dri.so
   obj:/usr/lib/x86_64-linux-gnu/dri/radeonsi_dri.so
}
{
   <insert_a_suppression_name_here>
   Memcheck:Leak
   match-leak-kinds: reachable
   fun:_Znwm
   obj:/usr/lib/x86_64-linux-gnu/libLLVM-9.so.1
   fun:__pthread_once_slow
   fun:_ZN4llvm46initializeBranchProbabilityInfoWrapperPassPassERNS_12PassRegistryE
   obj:/usr/lib/x86_64-linux-gnu/libLLVM-9.so.1
   fun:__pthread_once_slow
   fun:_ZN4llvm43initializeBlockFrequencyInfoWrapperPassPassERNS_12PassRegistryE
   obj:/usr/lib/x86_64-linux-gnu/libLLVM-9.so.1
   fun:__pthread_once_slow
   fun:_ZN4llvm26createConstantHoistingPassEv
   fun:_ZN4llvm16TargetPassConfig11addIRPassesEv
   obj:/usr/lib/x86_64-linux-gnu/libLLVM-9.so.1
}
{
   <insert_a_suppression_name_here>
   Memcheck:Leak
   match-leak-kinds: reachable
   fun:_Znwm
   obj:/usr/lib/x86_64-linux-gnu/libLLVM-9.so.1
   fun:__pthread_once_slow
   fun:_ZN4llvm43initializeBlockFrequencyInfoWrapperPassPassERNS_12PassRegistryE
   obj:/usr/lib/x86_64-linux-gnu/libLLVM-9.so.1
   fun:__pthread_once_slow
   fun:_ZN4llvm26createConstantHoistingPassEv
   fun:_ZN4llvm16TargetPassConfig11addIRPassesEv
   obj:/usr/lib/x86_64-linux-gnu/libLLVM-9.so.1
   fun:_ZN4llvm16TargetPassConfig13addISelPassesEv
   fun:_ZN4llvm17LLVMTargetMachine19addPassesToEmitFileERNS_6legacy15PassManagerBaseERNS_17raw_pwrite_streamEPS4_NS_13TargetMachine15CodeGenFileTypeEbPNS_17MachineModuleInfoE
   obj:/usr/lib/x86_64-linux-gnu/dri/radeonsi_dri.so
}
{
   <insert_a_suppression_name_here>
   Memcheck:Leak
   match-leak-kinds: reachable
   fun:_Znwm
   obj:/usr/lib/x86_64-linux-gnu/libLLVM-9.so.1
   fun:__pthread_once_slow
   fun:_ZN4llvm26createConstantHoistingPassEv
   fun:_ZN4llvm16TargetPassConfig11addIRPassesEv
   obj:/usr/lib/x86_64-linux-gnu/libLLVM-9.so.1
   fun:_ZN4llvm16TargetPassConfig13addISelPassesEv
   fun:_ZN4llvm17LLVMTargetMachine19addPassesToEmitFileERNS_6legacy15PassManagerBaseERNS_17raw_pwrite_streamEPS4_NS_13TargetMachine15CodeGenFileTypeEbPNS_17MachineModuleInfoE
   obj:/usr/lib/x86_64-linux-gnu/dri/radeonsi_dri.so
   obj:/usr/lib/x86_64-linux-gnu/dri/radeonsi_dri.so
   obj:/usr/lib/x86_64-linux-gnu/dri/radeonsi_dri.so
   obj:/usr/lib/x86_64-linux-gnu/dri/radeonsi_dri.so
}
{
   <insert_a_suppression_name_here>
   Memcheck:Leak
   match-leak-kinds: reachable
   fun:_Znwm
   obj:/usr/lib/x86_64-linux-gnu/libLLVM-9.so.1
   fun:__pthread_once_slow
   fun:_ZN4llvm33createPartiallyInlineLibCallsPassEv
   fun:_ZN4llvm16TargetPassConfig11addIRPassesEv
   obj:/usr/lib/x86_64-linux-gnu/libLLVM-9.so.1
   fun:_ZN4llvm16TargetPassConfig13addISelPassesEv
   fun:_ZN4llvm17LLVMTargetMachine19addPassesToEmitFileERNS_6legacy15PassManagerBaseERNS_17raw_pwrite_streamEPS4_NS_13TargetMachine15CodeGenFileTypeEbPNS_17MachineModuleInfoE
   obj:/usr/lib/x86_64-linux-gnu/dri/radeonsi_dri.so
   obj:/usr/lib/x86_64-linux-gnu/dri/radeonsi_dri.so
   obj:/usr/lib/x86_64-linux-gnu/dri/radeonsi_dri.so
   obj:/usr/lib/x86_64-linux-gnu/dri/radeonsi_dri.so
}
{
   <insert_a_suppression_name_here>
   Memcheck:Leak
   match-leak-kinds: reachable
   fun:_Znwm
   obj:/usr/lib/x86_64-linux-gnu/libLLVM-9.so.1
   fun:__pthread_once_slow
   fun:_ZN4llvm41createPostInlineEntryExitInstrumenterPassEv
   fun:_ZN4llvm16TargetPassConfig11addIRPassesEv
   obj:/usr/lib/x86_64-linux-gnu/libLLVM-9.so.1
   fun:_ZN4llvm16TargetPassConfig13addISelPassesEv
   fun:_ZN4llvm17LLVMTargetMachine19addPassesToEmitFileERNS_6legacy15PassManagerBaseERNS_17raw_pwrite_streamEPS4_NS_13TargetMachine15CodeGenFileTypeEbPNS_17MachineModuleInfoE
   obj:/usr/lib/x86_64-linux-gnu/dri/radeonsi_dri.so
   obj:/usr/lib/x86_64-linux-gnu/dri/radeonsi_dri.so
   obj:/usr/lib/x86_64-linux-gnu/dri/radeonsi_dri.so
   obj:/usr/lib/x86_64-linux-gnu/dri/radeonsi_dri.so
}
{
   <insert_a_suppression_name_here>
   Memcheck:Leak
   match-leak-kinds: reachable
   fun:_Znwm
   obj:/usr/lib/x86_64-linux-gnu/libLLVM-9.so.1
   fun:__pthread_once_slow
   fun:_ZN4llvm26createExpandReductionsPassEv
   fun:_ZN4llvm16TargetPassConfig11addIRPassesEv
   obj:/usr/lib/x86_64-linux-gnu/libLLVM-9.so.1
   fun:_ZN4llvm16TargetPassConfig13addISelPassesEv
   fun:_ZN4llvm17LLVMTargetMachine19addPassesToEmitFileERNS_6legacy15PassManagerBaseERNS_17raw_pwrite_streamEPS4_NS_13TargetMachine15CodeGenFileTypeEbPNS_17MachineModuleInfoE
   obj:/usr/lib/x86_64-linux-gnu/dri/radeonsi_dri.so
   obj:/usr/lib/x86_64-linux-gnu/dri/radeonsi_dri.so
   obj:/usr/lib/x86_64-linux-gnu/dri/radeonsi_dri.so
   obj:/usr/lib/x86_64-linux-gnu/dri/radeonsi_dri.so
}
{
   <insert_a_suppression_name_here>
   Memcheck:Leak
   match-leak-kinds: reachable
   fun:_Znwm
   obj:/usr/lib/x86_64-linux-gnu/libLLVM-9.so.1
   fun:__pthread_once_slow
   fun:_ZN4llvm24createRewriteSymbolsPassEv
   fun:_ZN4llvm16TargetPassConfig17addCodeGenPrepareEv
   obj:/usr/lib/x86_64-linux-gnu/libLLVM-9.so.1
   fun:_ZN4llvm16TargetPassConfig13addISelPassesEv
   fun:_ZN4llvm17LLVMTargetMachine19addPassesToEmitFileERNS_6legacy15PassManagerBaseERNS_17raw_pwrite_streamEPS4_NS_13TargetMachine15CodeGenFileTypeEbPNS_17MachineModuleInfoE
   obj:/usr/lib/x86_64-linux-gnu/dri/radeonsi_dri.so
   obj:/usr/lib/x86_64-linux-gnu/dri/radeonsi_dri.so
   obj:/usr/lib/x86_64-linux-gnu/dri/radeonsi_dri.so
   obj:/usr/lib/x86_64-linux-gnu/dri/radeonsi_dri.so
}
{
   <insert_a_suppression_name_here>
   Memcheck:Leak
   match-leak-kinds: reachable
   fun:_Znwm
   obj:/usr/lib/x86_64-linux-gnu/libLLVM-9.so.1
   fun:__pthread_once_slow
   fun:_ZN4llvm29createLoadStoreVectorizerPassEv
   obj:/usr/lib/x86_64-linux-gnu/libLLVM-9.so.1
   fun:_ZN4llvm16TargetPassConfig13addISelPassesEv
   fun:_ZN4llvm17LLVMTargetMachine19addPassesToEmitFileERNS_6legacy15PassManagerBaseERNS_17raw_pwrite_streamEPS4_NS_13TargetMachine15CodeGenFileTypeEbPNS_17MachineModuleInfoE
   obj:/usr/lib/x86_64-linux-gnu/dri/radeonsi_dri.so
   obj:/usr/lib/x86_64-linux-gnu/dri/radeonsi_dri.so
   obj:/usr/lib/x86_64-linux-gnu/dri/radeonsi_dri.so
   obj:/usr/lib/x86_64-linux-gnu/dri/radeonsi_dri.so
   obj:/usr/lib/x86_64-linux-gnu/dri/radeonsi_dri.so
}
{
   <insert_a_suppression_name_here>
   Memcheck:Leak
   match-leak-kinds: reachable
   fun:_Znwm
   obj:/usr/lib/x86_64-linux-gnu/libLLVM-9.so.1
   fun:__pthread_once_slow
   fun:_ZN4llvm21createLowerInvokePassEv
   fun:_ZN4llvm16TargetPassConfig27addPassesToHandleExceptionsEv
   fun:_ZN4llvm16TargetPassConfig13addISelPassesEv
   fun:_ZN4llvm17LLVMTargetMachine19addPassesToEmitFileERNS_6legacy15PassManagerBaseERNS_17raw_pwrite_streamEPS4_NS_13TargetMachine15CodeGenFileTypeEbPNS_17MachineModuleInfoE
   obj:/usr/lib/x86_64-linux-gnu/dri/radeonsi_dri.so
   obj:/usr/lib/x86_64-linux-gnu/dri/radeonsi_dri.so
   obj:/usr/lib/x86_64-linux-gnu/dri/radeonsi_dri.so
   obj:/usr/lib/x86_64-linux-gnu/dri/radeonsi_dri.so
   obj:/usr/lib/x86_64-linux-gnu/dri/radeonsi_dri.so
}
{
   <insert_a_suppression_name_here>
   Memcheck:Leak
   match-leak-kinds: reachable
   fun:_Znwm
   obj:/usr/lib/x86_64-linux-gnu/libLLVM-9.so.1
   fun:__pthread_once_slow
   fun:_ZN4llvm38initializeLazyValueInfoWrapperPassPassERNS_12PassRegistryE
   obj:/usr/lib/x86_64-linux-gnu/libLLVM-9.so.1
   fun:__pthread_once_slow
   fun:_ZN4llvm21createLowerSwitchPassEv
   obj:/usr/lib/x86_64-linux-gnu/libLLVM-9.so.1
   fun:_ZN4llvm16TargetPassConfig14addISelPrepareEv
   fun:_ZN4llvm16TargetPassConfig13addISelPassesEv
   fun:_ZN4llvm17LLVMTargetMachine19addPassesToEmitFileERNS_6legacy15PassManagerBaseERNS_17raw_pwrite_streamEPS4_NS_13TargetMachine15CodeGenFileTypeEbPNS_17MachineModuleInfoE
   obj:/usr/lib/x86_64-linux-gnu/dri/radeonsi_dri.so
}
{
   <insert_a_suppression_name_here>
   Memcheck:Leak
   match-leak-kinds: reachable
   fun:_Znwm
   obj:/usr/lib/x86_64-linux-gnu/libLLVM-9.so.1
   fun:__pthread_once_slow
   fun:_ZN4llvm21createLowerSwitchPassEv
   obj:/usr/lib/x86_64-linux-gnu/libLLVM-9.so.1
   fun:_ZN4llvm16TargetPassConfig14addISelPrepareEv
   fun:_ZN4llvm16TargetPassConfig13addISelPassesEv
   fun:_ZN4llvm17LLVMTargetMachine19addPassesToEmitFileERNS_6legacy15PassManagerBaseERNS_17raw_pwrite_streamEPS4_NS_13TargetMachine15CodeGenFileTypeEbPNS_17MachineModuleInfoE
   obj:/usr/lib/x86_64-linux-gnu/dri/radeonsi_dri.so
   obj:/usr/lib/x86_64-linux-gnu/dri/radeonsi_dri.so
   obj:/usr/lib/x86_64-linux-gnu/dri/radeonsi_dri.so
   obj:/usr/lib/x86_64-linux-gnu/dri/radeonsi_dri.so
}
{
   <insert_a_suppression_name_here>
   Memcheck:Leak
   match-leak-kinds: reachable
   fun:_Znwm
   obj:/usr/lib/x86_64-linux-gnu/libLLVM-9.so.1
   fun:__pthread_once_slow
   fun:_ZN4llvm20createFlattenCFGPassEv
   obj:/usr/lib/x86_64-linux-gnu/libLLVM-9.so.1
   fun:_ZN4llvm16TargetPassConfig14addISelPrepareEv
   fun:_ZN4llvm16TargetPassConfig13addISelPassesEv
   fun:_ZN4llvm17LLVMTargetMachine19addPassesToEmitFileERNS_6legacy15PassManagerBaseERNS_17raw_pwrite_streamEPS4_NS_13TargetMachine15CodeGenFileTypeEbPNS_17MachineModuleInfoE
   obj:/usr/lib/x86_64-linux-gnu/dri/radeonsi_dri.so
   obj:/usr/lib/x86_64-linux-gnu/dri/radeonsi_dri.so
   obj:/usr/lib/x86_64-linux-gnu/dri/radeonsi_dri.so
   obj:/usr/lib/x86_64-linux-gnu/dri/radeonsi_dri.so
}
{
   <insert_a_suppression_name_here>
   Memcheck:Leak
   match-leak-kinds: reachable
   fun:_Znwm
   obj:/usr/lib/x86_64-linux-gnu/libLLVM-9.so.1
   fun:__pthread_once_slow
   fun:_ZN4llvm42initializeDominanceFrontierWrapperPassPassERNS_12PassRegistryE
   obj:/usr/lib/x86_64-linux-gnu/libLLVM-9.so.1
   fun:__pthread_once_slow
   fun:_ZN4llvm28initializeRegionInfoPassPassERNS_12PassRegistryE
   obj:/usr/lib/x86_64-linux-gnu/libLLVM-9.so.1
   fun:__pthread_once_slow
   obj:/usr/lib/x86_64-linux-gnu/libLLVM-9.so.1
   fun:_ZN4llvm24createStructurizeCFGPassEb
   obj:/usr/lib/x86_64-linux-gnu/libLLVM-9.so.1
}
{
   <insert_a_suppression_name_here>
   Memcheck:Leak
   match-leak-kinds: reachable
   fun:_Znwm
   obj:/usr/lib/x86_64-linux-gnu/libLLVM-9.so.1
   fun:__pthread_once_slow
   fun:_ZN4llvm28initializeRegionInfoPassPassERNS_12PassRegistryE
   obj:/usr/lib/x86_64-linux-gnu/libLLVM-9.so.1
   fun:__pthread_once_slow
   obj:/usr/lib/x86_64-linux-gnu/libLLVM-9.so.1
   fun:_ZN4llvm24createStructurizeCFGPassEb
   obj:/usr/lib/x86_64-linux-gnu/libLLVM-9.so.1
   fun:_ZN4llvm16TargetPassConfig14addISelPrepareEv
   fun:_ZN4llvm16TargetPassConfig13addISelPassesEv
   fun:_ZN4llvm17LLVMTargetMachine19addPassesToEmitFileERNS_6legacy15PassManagerBaseERNS_17raw_pwrite_streamEPS4_NS_13TargetMachine15CodeGenFileTypeEbPNS_17MachineModuleInfoE
}
{
   <insert_a_suppression_name_here>
   Memcheck:Leak
   match-leak-kinds: reachable
   fun:_Znwm
   obj:/usr/lib/x86_64-linux-gnu/libLLVM-9.so.1
   fun:__pthread_once_slow
   obj:/usr/lib/x86_64-linux-gnu/libLLVM-9.so.1
   fun:_ZN4llvm24createStructurizeCFGPassEb
   obj:/usr/lib/x86_64-linux-gnu/libLLVM-9.so.1
   fun:_ZN4llvm16TargetPassConfig14addISelPrepareEv
   fun:_ZN4llvm16TargetPassConfig13addISelPassesEv
   fun:_ZN4llvm17LLVMTargetMachine19addPassesToEmitFileERNS_6legacy15PassManagerBaseERNS_17raw_pwrite_streamEPS4_NS_13TargetMachine15CodeGenFileTypeEbPNS_17MachineModuleInfoE
   obj:/usr/lib/x86_64-linux-gnu/dri/radeonsi_dri.so
   obj:/usr/lib/x86_64-linux-gnu/dri/radeonsi_dri.so
   obj:/usr/lib/x86_64-linux-gnu/dri/radeonsi_dri.so
}
{
   <insert_a_suppression_name_here>
   Memcheck:Leak
   match-leak-kinds: reachable
   fun:_Znwm
   obj:/usr/lib/x86_64-linux-gnu/libLLVM-9.so.1
   fun:__pthread_once_slow
   fun:_ZN4llvm17createSinkingPassEv
   obj:/usr/lib/x86_64-linux-gnu/libLLVM-9.so.1
   fun:_ZN4llvm16TargetPassConfig14addISelPrepareEv
   fun:_ZN4llvm16TargetPassConfig13addISelPassesEv
   fun:_ZN4llvm17LLVMTargetMachine19addPassesToEmitFileERNS_6legacy15PassManagerBaseERNS_17raw_pwrite_streamEPS4_NS_13TargetMachine15CodeGenFileTypeEbPNS_17MachineModuleInfoE
   obj:/usr/lib/x86_64-linux-gnu/dri/radeonsi_dri.so
   obj:/usr/lib/x86_64-linux-gnu/dri/radeonsi_dri.so
   obj:/usr/lib/x86_64-linux-gnu/dri/radeonsi_dri.so
   obj:/usr/lib/x86_64-linux-gnu/dri/radeonsi_dri.so
}
{
   <insert_a_suppression_name_here>
   Memcheck:Leak
   match-leak-kinds: reachable
   fun:_Znwm
   obj:/usr/lib/x86_64-linux-gnu/libLLVM-9.so.1
   fun:__pthread_once_slow
   fun:_ZN4llvm28initializeDummyCGSCCPassPassERNS_12PassRegistryE
   fun:_ZN4llvm16TargetPassConfig14addISelPrepareEv
   fun:_ZN4llvm16TargetPassConfig13addISelPassesEv
   fun:_ZN4llvm17LLVMTargetMachine19addPassesToEmitFileERNS_6legacy15PassManagerBaseERNS_17raw_pwrite_streamEPS4_NS_13TargetMachine15CodeGenFileTypeEbPNS_17MachineModuleInfoE
   obj:/usr/lib/x86_64-linux-gnu/dri/radeonsi_dri.so
   obj:/usr/lib/x86_64-linux-gnu/dri/radeonsi_dri.so
   obj:/usr/lib/x86_64-linux-gnu/dri/radeonsi_dri.so
   obj:/usr/lib/x86_64-linux-gnu/dri/radeonsi_dri.so
   obj:/usr/lib/x86_64-linux-gnu/dri/radeonsi_dri.so
}
{
   <insert_a_suppression_name_here>
   Memcheck:Leak
   match-leak-kinds: reachable
   fun:_Znwm
   obj:/usr/lib/x86_64-linux-gnu/libLLVM-9.so.1
   fun:__pthread_once_slow
   fun:_ZN4llvm22createSIAddIMGInitPassEv
   obj:/usr/lib/x86_64-linux-gnu/libLLVM-9.so.1
   fun:_ZN4llvm16TargetPassConfig17addCoreISelPassesEv
   fun:_ZN4llvm16TargetPassConfig13addISelPassesEv
   fun:_ZN4llvm17LLVMTargetMachine19addPassesToEmitFileERNS_6legacy15PassManagerBaseERNS_17raw_pwrite_streamEPS4_NS_13TargetMachine15CodeGenFileTypeEbPNS_17MachineModuleInfoE
   obj:/usr/lib/x86_64-linux-gnu/dri/radeonsi_dri.so
   obj:/usr/lib/x86_64-linux-gnu/dri/radeonsi_dri.so
   obj:/usr/lib/x86_64-linux-gnu/dri/radeonsi_dri.so
   obj:/usr/lib/x86_64-linux-gnu/dri/radeonsi_dri.so
}
{
   <insert_a_suppression_name_here>
   Memcheck:Leak
   match-leak-kinds: reachable
   fun:malloc
   fun:_XlcAddCharSet
   obj:/usr/lib/x86_64-linux-gnu/libX11.so.6.3.0
   obj:/usr/lib/x86_64-linux-gnu/libX11.so.6.3.0
   fun:_XlcCreateLC
   fun:_XlcUtf8Loader
   fun:_XOpenLC
   fun:_XlcCurrentLC
   fun:XSetLocaleModifiers
   obj:/usr/lib/x86_64-linux-gnu/libSDL2-2.0.so.0.10.0
   obj:/usr/lib/x86_64-linux-gnu/libSDL2-2.0.so.0.10.0
   obj:/usr/lib/x86_64-linux-gnu/libSDL2-2.0.so.0.10.0
}
{
   <insert_a_suppression_name_here>
   Memcheck:Leak
   match-leak-kinds: reachable
   fun:malloc
   fun:_dl_new_object
   fun:_dl_map_object_from_fd
   fun:_dl_map_object
   fun:dl_open_worker
   fun:_dl_catch_exception
   fun:_dl_open
   fun:dlopen_doit
   fun:_dl_catch_exception
   fun:_dl_catch_error
   fun:_dlerror_run
   fun:dlopen@@GLIBC_2.2.5
}
{
   <insert_a_suppression_name_here>
   Memcheck:Leak
   match-leak-kinds: reachable
   fun:malloc
   fun:realloc
   obj:/usr/lib/x86_64-linux-gnu/libSDL2-2.0.so.0.10.0
   obj:/usr/lib/x86_64-linux-gnu/libSDL2-2.0.so.0.10.0
   obj:/usr/lib/x86_64-linux-gnu/libSDL2-2.0.so.0.10.0
   obj:/usr/lib/x86_64-linux-gnu/libSDL2-2.0.so.0.10.0
   obj:/usr/lib/x86_64-linux-gnu/libSDL2-2.0.so.0.10.0
   fun:_ZN9SDLWindowC1Eii
   fun:main
}
{
   <insert_a_suppression_name_here>
   Memcheck:Leak
   match-leak-kinds: reachable
   fun:malloc
   fun:_dl_close_worker.part.0
   fun:_dl_close_worker
   fun:_dl_close
   fun:_dl_catch_exception
   fun:_dl_catch_error
   fun:dlerror_run
   fun:__libc_dlclose
   fun:free_mem
   fun:__libc_freeres
   fun:_vgnU_freeres
   fun:__run_exit_handlers
   fun:exit
   fun:(below main)
}
{
   <insert_a_suppression_name_here>
   Memcheck:Leak
   match-leak-kinds: reachable
   fun:malloc
   obj:/usr/lib/x86_64-linux-gnu/libLLVM-9.so.1
   obj:/usr/lib/x86_64-linux-gnu/libLLVM-9.so.1
   fun:_ZN4llvm2cl5applyINS0_3optI6ITModeLb0ENS0_6parserIS3_EEEENS0_18NumOccurrencesFlagEJNS0_11ValuesClassEEEEvPT_RKT0_DpRKT1_
   obj:/usr/lib/x86_64-linux-gnu/libLLVM-9.so.1
   fun:call_init.part.0
   fun:call_init
   fun:_dl_init
   fun:_dl_catch_exception
   fun:dl_open_worker
   fun:_dl_catch_exception
   fun:_dl_open
   fun:dlopen_doit
}
{
   <insert_a_suppression_name_here>
   Memcheck:Leak
   match-leak-kinds: reachable
   fun:_Znwm
   obj:/usr/lib/x86_64-linux-gnu/libLLVM-9.so.1
   fun:_ZNK4llvm17ManagedStaticBase21RegisterManagedStaticEPFPvvEPFvS1_E
   fun:_ZN4llvm12PassRegistry15getPassRegistryEv
   fun:_ZN4llvm14PassNameParserC1ERNS_2cl6OptionE
   obj:/usr/lib/x86_64-linux-gnu/libLLVM-9.so.1
   fun:call_init.part.0
   fun:call_init
   fun:_dl_init
   fun:_dl_catch_exception
   fun:dl_open_worker
   fun:_dl_catch_exception
   fun:_dl_open
}
{
   <insert_a_suppression_name_here>
   Memcheck:Leak
   match-leak-kinds: reachable
   fun:malloc
   obj:/usr/lib/x86_64-linux-gnu/libX11.so.6.3.0
   obj:/usr/lib/x86_64-linux-gnu/libX11.so.6.3.0
   obj:/usr/lib/x86_64-linux-gnu/libX11.so.6.3.0
   fun:_XlcCreateLocaleDataBase
   obj:/usr/lib/x86_64-linux-gnu/libX11.so.6.3.0
   obj:/usr/lib/x86_64-linux-gnu/libX11.so.6.3.0
   fun:_XlcCreateLC
   fun:_XlcDefaultLoader
   fun:_XOpenLC
   fun:_XlcCurrentLC
   fun:XSetLocaleModifiers
}
{
   <insert_a_suppression_name_here>
   Memcheck:Leak
   match-leak-kinds: reachable
   fun:calloc
   obj:/usr/lib/x86_64-linux-gnu/libX11.so.6.3.0
   obj:/usr/lib/x86_64-linux-gnu/libX11.so.6.3.0
   obj:/usr/lib/x86_64-linux-gnu/libX11.so.6.3.0
   fun:_XlcCreateLC
   fun:_XlcDefaultLoader
   fun:_XOpenLC
   fun:_XlcCurrentLC
   fun:XSetLocaleModifiers
   obj:/usr/lib/x86_64-linux-gnu/libSDL2-2.0.so.0.10.0
   obj:/usr/lib/x86_64-linux-gnu/libSDL2-2.0.so.0.10.0
   obj:/usr/lib/x86_64-linux-gnu/libSDL2-2.0.so.0.10.0
}
{
   <insert_a_suppression_name_here>
   Memcheck:Leak
   match-leak-kinds: reachable
   fun:malloc
   obj:/usr/lib/x86_64-linux-gnu/libX11.so.6.3.0
   fun:_XlcCreateLC
   fun:_XlcDefaultLoader
   fun:_XOpenLC
   fun:_XlcCurrentLC
   fun:XSetLocaleModifiers
   obj:/usr/lib/x86_64-linux-gnu/libSDL2-2.0.so.0.10.0
   obj:/usr/lib/x86_64-linux-gnu/libSDL2-2.0.so.0.10.0
   obj:/usr/lib/x86_64-linux-gnu/libSDL2-2.0.so.0.10.0
   obj:/usr/lib/x86_64-linux-gnu/libSDL2-2.0.so.0.10.0
   fun:_ZN9SDLWindowC1Eii
}
{
   <insert_a_suppression_name_here>
   Memcheck:Leak
   match-leak-kinds: reachable
   fun:_Znwm
   obj:/usr/lib/x86_64-linux-gnu/libLLVM-9.so.1
   fun:_ZNK4llvm17ManagedStaticBase21RegisterManagedStaticEPFPvvEPFvS1_E
   obj:/usr/lib/x86_64-linux-gnu/libLLVM-9.so.1
   fun:_ZNK4llvm17ManagedStaticBase21RegisterManagedStaticEPFPvvEPFvS1_E
   fun:_ZN4llvm2cl14OptionCategory16registerCategoryEv
   obj:/usr/lib/x86_64-linux-gnu/libLLVM-9.so.1
   fun:call_init.part.0
   fun:call_init
   fun:_dl_init
   fun:_dl_catch_exception
   fun:dl_open_worker
   fun:_dl_catch_exception
}
{
   <insert_a_suppression_name_here>
   Memcheck:Leak
   match-leak-kinds: reachable
   fun:_Znwm
   obj:/usr/lib/x86_64-linux-gnu/libLLVM-9.so.1
   fun:_ZNK4llvm17ManagedStaticBase21RegisterManagedStaticEPFPvvEPFvS1_E
   obj:/usr/lib/x86_64-linux-gnu/libLLVM-9.so.1
   obj:/usr/lib/x86_64-linux-gnu/libLLVM-9.so.1
   fun:_ZNK4llvm17ManagedStaticBase21RegisterManagedStaticEPFPvvEPFvS1_E
   fun:_ZN4llvm2cl14OptionCategory16registerCategoryEv
   obj:/usr/lib/x86_64-linux-gnu/libLLVM-9.so.1
   fun:call_init.part.0
   fun:call_init
   fun:_dl_init
   fun:_dl_catch_exception
   fun:dl_open_worker
}
{
   <insert_a_suppression_name_here>
   Memcheck:Leak
   match-leak-kinds: reachable
   fun:calloc
   obj:/lib/x86_64-linux-gnu/libdbus-1.so.3.19.11
   fun:dbus_message_new_method_call
   fun:dbus_bus_register
   obj:/lib/x86_64-linux-gnu/libdbus-1.so.3.19.11
   obj:/usr/lib/x86_64-linux-gnu/libSDL2-2.0.so.0.10.0
   obj:/usr/lib/x86_64-linux-gnu/libSDL2-2.0.so.0.10.0
   obj:/usr/lib/x86_64-linux-gnu/libSDL2-2.0.so.0.10.0
   obj:/usr/lib/x86_64-linux-gnu/libSDL2-2.0.so.0.10.0
   obj:/usr/lib/x86_64-linux-gnu/libSDL2-2.0.so.0.10.0
   obj:/usr/lib/x86_64-linux-gnu/libSDL2-2.0.so.0.10.0
   obj:/usr/lib/x86_64-linux-gnu/libSDL2-2.0.so.0.10.0
}
{
   <insert_a_suppression_name_here>
   Memcheck:Leak
   match-leak-kinds: reachable
   fun:calloc
   fun:_ZN4llvm13StringMapImpl15LookupBucketForENS_9StringRefE
   obj:/usr/lib/x86_64-linux-gnu/libLLVM-9.so.1
   obj:/usr/lib/x86_64-linux-gnu/libLLVM-9.so.1
   obj:/usr/lib/x86_64-linux-gnu/libLLVM-9.so.1
   obj:/usr/lib/x86_64-linux-gnu/libLLVM-9.so.1
   fun:call_init.part.0
   fun:call_init
   fun:_dl_init
   fun:_dl_catch_exception
   fun:dl_open_worker
   fun:_dl_catch_exception
   fun:_dl_open
}
{
   <insert_a_suppression_name_here>
   Memcheck:Leak
   match-leak-kinds: reachable
   fun:malloc
   fun:strdup
   obj:/usr/lib/x86_64-linux-gnu/libX11.so.6.3.0
   obj:/usr/lib/x86_64-linux-gnu/libX11.so.6.3.0
   fun:_XlcCreateLocaleDataBase
   obj:/usr/lib/x86_64-linux-gnu/libX11.so.6.3.0
   obj:/usr/lib/x86_64-linux-gnu/libX11.so.6.3.0
   fun:_XlcCreateLC
   fun:_XlcDefaultLoader
   fun:_XOpenLC
   fun:_XlcCurrentLC
   fun:XSetLocaleModifiers
}
{
   <insert_a_suppression_name_here>
   Memcheck:Leak
   match-leak-kinds: reachable
   fun:realloc
   obj:/lib/x86_64-linux-gnu/libdbus-1.so.3.19.11
   obj:/lib/x86_64-linux-gnu/libdbus-1.so.3.19.11
   obj:/lib/x86_64-linux-gnu/libdbus-1.so.3.19.11
   fun:_dbus_message_loader_queue_messages
   obj:/lib/x86_64-linux-gnu/libdbus-1.so.3.19.11
   obj:/lib/x86_64-linux-gnu/libdbus-1.so.3.19.11
   obj:/lib/x86_64-linux-gnu/libdbus-1.so.3.19.11
   obj:/lib/x86_64-linux-gnu/libdbus-1.so.3.19.11
   obj:/lib/x86_64-linux-gnu/libdbus-1.so.3.19.11
   obj:/lib/x86_64-linux-gnu/libdbus-1.so.3.19.11
   obj:/lib/x86_64-linux-gnu/libdbus-1.so.3.19.11
}
{
   <insert_a_suppression_name_here>
   Memcheck:Leak
   match-leak-kinds: reachable
   fun:realloc
   obj:/lib/x86_64-linux-gnu/libdbus-1.so.3.19.11
   obj:/lib/x86_64-linux-gnu/libdbus-1.so.3.19.11
   obj:/lib/x86_64-linux-gnu/libdbus-1.so.3.19.11
   obj:/lib/x86_64-linux-gnu/libdbus-1.so.3.19.11
   fun:_dbus_type_writer_recurse
   obj:/lib/x86_64-linux-gnu/libdbus-1.so.3.19.11
   obj:/lib/x86_64-linux-gnu/libdbus-1.so.3.19.11
   fun:dbus_message_new_method_call
   obj:/usr/lib/x86_64-linux-gnu/libSDL2-2.0.so.0.10.0
   obj:/usr/lib/x86_64-linux-gnu/libSDL2-2.0.so.0.10.0
   obj:/usr/lib/x86_64-linux-gnu/libSDL2-2.0.so.0.10.0
}
{
   <insert_a_suppression_name_here>
   Memcheck:Leak
   match-leak-kinds: reachable
   fun:_Znwm
   obj:/usr/lib/x86_64-linux-gnu/libLLVM-9.so.1
   fun:_ZNK4llvm17ManagedStaticBase21RegisterManagedStaticEPFPvvEPFvS1_E
   fun:_ZN4llvm2cl14OptionCategory16registerCategoryEv
   obj:/usr/lib/x86_64-linux-gnu/libLLVM-9.so.1
   fun:call_init.part.0
   fun:call_init
   fun:_dl_init
   fun:_dl_catch_exception
   fun:dl_open_worker
   fun:_dl_catch_exception
   fun:_dl_open
   fun:dlopen_doit
}
{
   <insert_a_suppression_name_here>
   Memcheck:Leak
   match-leak-kinds: reachable
   fun:calloc
   fun:_XlcCreateDefaultCharSet
   obj:/usr/lib/x86_64-linux-gnu/libX11.so.6.3.0
   obj:/usr/lib/x86_64-linux-gnu/libX11.so.6.3.0
   fun:_XlcCreateLC
   fun:_XlcUtf8Loader
   fun:_XOpenLC
   fun:_XlcCurrentLC
   fun:XSetLocaleModifiers
   obj:/usr/lib/x86_64-linux-gnu/libSDL2-2.0.so.0.10.0
   obj:/usr/lib/x86_64-linux-gnu/libSDL2-2.0.so.0.10.0
   obj:/usr/lib/x86_64-linux-gnu/libSDL2-2.0.so.0.10.0
}
{
   <insert_a_suppression_name_here>
   Memcheck:Leak
   match-leak-kinds: reachable
   fun:calloc
   obj:/lib/x86_64-linux-gnu/libdbus-1.so.3.19.11
   fun:_dbus_message_loader_queue_messages
   obj:/lib/x86_64-linux-gnu/libdbus-1.so.3.19.11
   obj:/lib/x86_64-linux-gnu/libdbus-1.so.3.19.11
   obj:/lib/x86_64-linux-gnu/libdbus-1.so.3.19.11
   obj:/lib/x86_64-linux-gnu/libdbus-1.so.3.19.11
   obj:/lib/x86_64-linux-gnu/libdbus-1.so.3.19.11
   obj:/lib/x86_64-linux-gnu/libdbus-1.so.3.19.11
   obj:/lib/x86_64-linux-gnu/libdbus-1.so.3.19.11
   fun:dbus_connection_send_with_reply_and_block
   fun:dbus_bus_register
}
{
   <insert_a_suppression_name_here>
   Memcheck:Leak
   match-leak-kinds: reachable
   fun:calloc
   obj:/lib/x86_64-linux-gnu/libdbus-1.so.3.19.11
   fun:_dbus_message_loader_queue_messages
   obj:/lib/x86_64-linux-gnu/libdbus-1.so.3.19.11
   obj:/lib/x86_64-linux-gnu/libdbus-1.so.3.19.11
   obj:/lib/x86_64-linux-gnu/libdbus-1.so.3.19.11
   obj:/lib/x86_64-linux-gnu/libdbus-1.so.3.19.11
   obj:/lib/x86_64-linux-gnu/libdbus-1.so.3.19.11
   obj:/lib/x86_64-linux-gnu/libdbus-1.so.3.19.11
   obj:/lib/x86_64-linux-gnu/libdbus-1.so.3.19.11
   obj:/usr/lib/x86_64-linux-gnu/libSDL2-2.0.so.0.10.0
   obj:/usr/lib/x86_64-linux-gnu/libSDL2-2.0.so.0.10.0
}
{
   <insert_a_suppression_name_here>
   Memcheck:Leak
   match-leak-kinds: reachable
   fun:calloc
   fun:_XlcCreateLocaleDataBase
   obj:/usr/lib/x86_64-linux-gnu/libX11.so.6.3.0
   obj:/usr/lib/x86_64-linux-gnu/libX11.so.6.3.0
   fun:_XlcCreateLC
   fun:_XlcDefaultLoader
   fun:_XOpenLC
   fun:_XlcCurrentLC
   fun:XSetLocaleModifiers
   obj:/usr/lib/x86_64-linux-gnu/libSDL2-2.0.so.0.10.0
   obj:/usr/lib/x86_64-linux-gnu/libSDL2-2.0.so.0.10.0
   obj:/usr/lib/x86_64-linux-gnu/libSDL2-2.0.so.0.10.0
}
{
   <insert_a_suppression_name_here>
   Memcheck:Leak
   match-leak-kinds: reachable
   fun:calloc
   fun:_dl_check_map_versions
   fun:dl_open_worker
   fun:_dl_catch_exception
   fun:_dl_open
   fun:dlopen_doit
   fun:_dl_catch_exception
   fun:_dl_catch_error
   fun:_dlerror_run
   fun:dlopen@@GLIBC_2.2.5
   obj:/usr/lib/x86_64-linux-gnu/libSDL2-2.0.so.0.10.0
   obj:/usr/lib/x86_64-linux-gnu/libSDL2-2.0.so.0.10.0
}
{
   <insert_a_suppression_name_here>
   Memcheck:Leak
   match-leak-kinds: indirect
   fun:malloc
   obj:/usr/lib/x86_64-linux-gnu/dri/radeonsi_dri.so
   obj:/usr/lib/x86_64-linux-gnu/dri/radeonsi_dri.so
   obj:/usr/lib/x86_64-linux-gnu/dri/radeonsi_dri.so
   obj:/usr/lib/x86_64-linux-gnu/dri/radeonsi_dri.so
   obj:/usr/lib/x86_64-linux-gnu/dri/radeonsi_dri.so
   obj:/usr/lib/x86_64-linux-gnu/dri/radeonsi_dri.so
   obj:/usr/lib/x86_64-linux-gnu/dri/radeonsi_dri.so
   obj:/usr/lib/x86_64-linux-gnu/dri/radeonsi_dri.so
   obj:/usr/lib/x86_64-linux-gnu/dri/radeonsi_dri.so
   obj:/usr/lib/x86_64-linux-gnu/dri/radeonsi_dri.so
   obj:/usr/lib/x86_64-linux-gnu/dri/radeonsi_dri.so
}
{
   <insert_a_suppression_name_here>
   Memcheck:Leak
   match-leak-kinds: reachable
   fun:malloc
   fun:strdup
   fun:_dl_load_cache_lookup
   fun:_dl_map_object
   fun:openaux
   fun:_dl_catch_exception
   fun:_dl_map_object_deps
   fun:dl_open_worker
   fun:_dl_catch_exception
   fun:_dl_open
   fun:dlopen_doit
   fun:_dl_catch_exception
}
{
   <insert_a_suppression_name_here>
   Memcheck:Leak
   match-leak-kinds: reachable
   fun:malloc
   fun:_dl_new_object
   fun:_dl_map_object_from_fd
   fun:_dl_map_object
   fun:openaux
   fun:_dl_catch_exception
   fun:_dl_map_object_deps
   fun:dl_open_worker
   fun:_dl_catch_exception
   fun:_dl_open
   fun:dlopen_doit
   fun:_dl_catch_exception
}
{
   <insert_a_suppression_name_here>
   Memcheck:Leak
   match-leak-kinds: reachable
   fun:calloc
   fun:_dl_check_map_versions
   fun:dl_open_worker
   fun:_dl_catch_exception
   fun:_dl_open
   fun:dlopen_doit
   fun:_dl_catch_exception
   fun:_dl_catch_error
   fun:_dlerror_run
   fun:dlopen@@GLIBC_2.2.5
   obj:/usr/lib/x86_64-linux-gnu/libGLX.so.0.0.0
   obj:/usr/lib/x86_64-linux-gnu/libGLX.so.0.0.0
}
{
   <insert_a_suppression_name_here>
   Memcheck:Leak
   match-leak-kinds: reachable
   fun:malloc
   fun:_XlcCreateDefaultCharSet
   fun:_XlcAddCT
   fun:_XlcInitCTInfo
   obj:/usr/lib/x86_64-linux-gnu/libX11.so.6.3.0
   obj:/usr/lib/x86_64-linux-gnu/libX11.so.6.3.0
   fun:_XlcCreateLC
   fun:_XlcUtf8Loader
   fun:_XOpenLC
   fun:_XlcCurrentLC
   fun:XSetLocaleModifiers
   obj:/usr/lib/x86_64-linux-gnu/libSDL2-2.0.so.0.10.0
}
{
   <insert_a_suppression_name_here>
   Memcheck:Leak
   match-leak-kinds: reachable
   fun:realloc
   obj:/lib/x86_64-linux-gnu/libdbus-1.so.3.19.11
   obj:/lib/x86_64-linux-gnu/libdbus-1.so.3.19.11
   obj:/lib/x86_64-linux-gnu/libdbus-1.so.3.19.11
   obj:/lib/x86_64-linux-gnu/libdbus-1.so.3.19.11
   obj:/lib/x86_64-linux-gnu/libdbus-1.so.3.19.11
   fun:_dbus_type_writer_write_basic
   fun:dbus_message_iter_append_basic
   fun:dbus_message_new_error
   obj:/lib/x86_64-linux-gnu/libdbus-1.so.3.19.11
   fun:dbus_connection_send_with_reply
   fun:dbus_connection_send_with_reply_and_block
}
{
   <insert_a_suppression_name_here>
   Memcheck:Leak
   match-leak-kinds: reachable
   fun:calloc
   obj:/usr/lib/x86_64-linux-gnu/libX11.so.6.3.0
   obj:/usr/lib/x86_64-linux-gnu/libX11.so.6.3.0
   fun:_XlcCreateLocaleDataBase
   obj:/usr/lib/x86_64-linux-gnu/libX11.so.6.3.0
   obj:/usr/lib/x86_64-linux-gnu/libX11.so.6.3.0
   fun:_XlcCreateLC
   fun:_XlcDefaultLoader
   fun:_XOpenLC
   fun:_XlcCurrentLC
   fun:XSetLocaleModifiers
   obj:/usr/lib/x86_64-linux-gnu/libSDL2-2.0.so.0.10.0
}
{
   <insert_a_suppression_name_here>
   Memcheck:Leak
   match-leak-kinds: reachable
   fun:malloc
   obj:/usr/lib/x86_64-linux-gnu/libSDL2-2.0.so.0.10.0
   obj:/usr/lib/x86_64-linux-gnu/libSDL2-2.0.so.0.10.0
   obj:/usr/lib/x86_64-linux-gnu/libSDL2-2.0.so.0.10.0
   obj:/usr/lib/x86_64-linux-gnu/libSDL2-2.0.so.0.10.0
   fun:_ZN9SDLWindowC1Eii
   fun:main
}
{
   <insert_a_suppression_name_here>
   Memcheck:Leak
   match-leak-kinds: reachable
   fun:realloc
   obj:/lib/x86_64-linux-gnu/libdbus-1.so.3.19.11
   obj:/lib/x86_64-linux-gnu/libdbus-1.so.3.19.11
   obj:/lib/x86_64-linux-gnu/libdbus-1.so.3.19.11
   obj:/lib/x86_64-linux-gnu/libdbus-1.so.3.19.11
   fun:_dbus_message_loader_queue_messages
   obj:/lib/x86_64-linux-gnu/libdbus-1.so.3.19.11
   obj:/lib/x86_64-linux-gnu/libdbus-1.so.3.19.11
   obj:/lib/x86_64-linux-gnu/libdbus-1.so.3.19.11
   obj:/lib/x86_64-linux-gnu/libdbus-1.so.3.19.11
   obj:/lib/x86_64-linux-gnu/libdbus-1.so.3.19.11
   obj:/lib/x86_64-linux-gnu/libdbus-1.so.3.19.11
}
{
   <insert_a_suppression_name_here>
   Memcheck:Leak
   match-leak-kinds: reachable
   fun:malloc
   fun:_XlcAddCharSet
   fun:_XlcAddCT
   fun:_XlcInitCTInfo
   obj:/usr/lib/x86_64-linux-gnu/libX11.so.6.3.0
   obj:/usr/lib/x86_64-linux-gnu/libX11.so.6.3.0
   fun:_XlcCreateLC
   fun:_XlcUtf8Loader
   fun:_XOpenLC
   fun:_XlcCurrentLC
   fun:XSetLocaleModifiers
   obj:/usr/lib/x86_64-linux-gnu/libSDL2-2.0.so.0.10.0
}
{
   <insert_a_suppression_name_here>
   Memcheck:Leak
   match-leak-kinds: reachable
   fun:malloc
   fun:add_to_global_resize
   fun:dl_open_worker
   fun:_dl_catch_exception
   fun:_dl_open
   fun:dlopen_doit
   fun:_dl_catch_exception
   fun:_dl_catch_error
   fun:_dlerror_run
   fun:dlopen@@GLIBC_2.2.5
   obj:*
   obj:*
}
{
   <insert_a_suppression_name_here>
   Memcheck:Leak
   match-leak-kinds: reachable
   fun:malloc
   fun:_XlcCreateLocaleDataBase
   obj:/usr/lib/x86_64-linux-gnu/libX11.so.6.3.0
   obj:/usr/lib/x86_64-linux-gnu/libX11.so.6.3.0
   fun:_XlcCreateLC
   fun:_XlcUtf8Loader
   fun:_XOpenLC
   fun:_XlcCurrentLC
   fun:XSetLocaleModifiers
   obj:/usr/lib/x86_64-linux-gnu/libSDL2-2.0.so.0.10.0
   obj:/usr/lib/x86_64-linux-gnu/libSDL2-2.0.so.0.10.0
   obj:/usr/lib/x86_64-linux-gnu/libSDL2-2.0.so.0.10.0
}
{
   <insert_a_suppression_name_here>
   Memcheck:Leak
   match-leak-kinds: reachable
   fun:_Znwm
   fun:_ZNSt6vectorISt10unique_ptrIKN4llvm8PassInfoESt14default_deleteIS3_EESaIS6_EE17_M_realloc_insertIJS6_EEEvN9__gnu_cxx17__normal_iteratorIPS6_S8_EEDpOT_
   fun:_ZN4llvm12PassRegistry12registerPassERKNS_8PassInfoEb
   obj:/usr/lib/x86_64-linux-gnu/libLLVM-9.so.1
   fun:__pthread_once_slow
   fun:_ZN4llvm25initializeIfConverterPassERNS_12PassRegistryE
   fun:_ZN4llvm17initializeCodeGenERNS_12PassRegistryE
   fun:_ZN4llvm16TargetPassConfigC1ERNS_17LLVMTargetMachineERNS_6legacy15PassManagerBaseE
   fun:_ZN4llvm16GCNTargetMachine16createPassConfigERNS_6legacy15PassManagerBaseE
   fun:_ZN4llvm17LLVMTargetMachine19addPassesToEmitFileERNS_6legacy15PassManagerBaseERNS_17raw_pwrite_streamEPS4_NS_13TargetMachine15CodeGenFileTypeEbPNS_17MachineModuleInfoE
   obj:/usr/lib/x86_64-linux-gnu/dri/radeonsi_dri.so
   obj:/usr/lib/x86_64-linux-gnu/dri/radeonsi_dri.so
}
{
   <insert_a_suppression_name_here>
   Memcheck:Leak
   match-leak-kinds: reachable
   fun:calloc
   fun:_dl_new_object
   fun:_dl_map_object_from_fd
   fun:_dl_map_object
   fun:dl_open_worker
   fun:_dl_catch_exception
   fun:_dl_open
   fun:dlopen_doit
   fun:_dl_catch_exception
   fun:_dl_catch_error
   fun:_dlerror_run
   fun:dlopen@@GLIBC_2.2.5
}
{
   <insert_a_suppression_name_here>
   Memcheck:Leak
   match-leak-kinds: reachable
   fun:calloc
   fun:_XlcCreateDefaultCharSet
   fun:_XlcAddCT
   fun:_XlcInitCTInfo
   obj:/usr/lib/x86_64-linux-gnu/libX11.so.6.3.0
   obj:/usr/lib/x86_64-linux-gnu/libX11.so.6.3.0
   fun:_XlcCreateLC
   fun:_XlcUtf8Loader
   fun:_XOpenLC
   fun:_XlcCurrentLC
   fun:XSetLocaleModifiers
   obj:/usr/lib/x86_64-linux-gnu/libSDL2-2.0.so.0.10.0
}
{
   <insert_a_suppression_name_here>
   Memcheck:Leak
   match-leak-kinds: reachable
   fun:calloc
   fun:_XrmInternalStringToQuark
   fun:_XlcGetCharSet
   fun:_XlcAddCT
   fun:_XlcInitCTInfo
   obj:/usr/lib/x86_64-linux-gnu/libX11.so.6.3.0
   obj:/usr/lib/x86_64-linux-gnu/libX11.so.6.3.0
   fun:_XlcCreateLC
   fun:_XlcUtf8Loader
   fun:_XOpenLC
   fun:_XlcCurrentLC
   fun:XSetLocaleModifiers
}
{
   <insert_a_suppression_name_here>
   Memcheck:Leak
   match-leak-kinds: reachable
   fun:calloc
   fun:_dl_check_map_versions
   fun:dl_open_worker
   fun:_dl_catch_exception
   fun:_dl_open
   fun:dlopen_doit
   fun:_dl_catch_exception
   fun:_dl_catch_error
   fun:_dlerror_run
   fun:dlopen@@GLIBC_2.2.5
   obj:*
   obj:*
}
{
   <insert_a_suppression_name_here>
   Memcheck:Leak
   match-leak-kinds: reachable
   fun:_Znwm
   obj:/usr/lib/x86_64-linux-gnu/libLLVM-9.so.1
   obj:/usr/lib/x86_64-linux-gnu/libLLVM-9.so.1
   obj:/usr/lib/x86_64-linux-gnu/libLLVM-9.so.1
   obj:/usr/lib/x86_64-linux-gnu/libLLVM-9.so.1
   obj:/usr/lib/x86_64-linux-gnu/libLLVM-9.so.1
   fun:call_init.part.0
   fun:call_init
   fun:_dl_init
   fun:_dl_catch_exception
   fun:dl_open_worker
   fun:_dl_catch_exception
   fun:_dl_open
}
{
   <insert_a_suppression_name_here>
   Memcheck:Leak
   match-leak-kinds: reachable
   fun:malloc
   fun:strdup
   obj:/usr/lib/x86_64-linux-gnu/libglapi.so.0.0.0
   fun:_glapi_get_proc_address
   obj:*
   obj:/usr/lib/x86_64-linux-gnu/libGLdispatch.so.0.0.0
   fun:__glDispatchMakeCurrent
   obj:/usr/lib/x86_64-linux-gnu/libGLX.so.0.0.0
   obj:/usr/lib/x86_64-linux-gnu/libGLX.so.0.0.0
   obj:/usr/lib/x86_64-linux-gnu/libSDL2-2.0.so.0.10.0
   obj:/usr/lib/x86_64-linux-gnu/libSDL2-2.0.so.0.10.0
   obj:/usr/lib/x86_64-linux-gnu/libSDL2-2.0.so.0.10.0
}
{
   <insert_a_suppression_name_here>
   Memcheck:Leak
   match-leak-kinds: reachable
   fun:calloc
   fun:_ZN4llvm13StringMapImpl11RehashTableEj
   obj:/usr/lib/x86_64-linux-gnu/libLLVM-9.so.1
   fun:_ZN4llvm12PassRegistry12registerPassERKNS_8PassInfoEb
   obj:/usr/lib/x86_64-linux-gnu/libLLVM-9.so.1
   fun:__pthread_once_slow
   fun:_ZN4llvm26initializeWinEHPreparePassERNS_12PassRegistryE
   fun:_ZN4llvm17initializeCodeGenERNS_12PassRegistryE
   fun:_ZN4llvm16TargetPassConfigC1ERNS_17LLVMTargetMachineERNS_6legacy15PassManagerBaseE
   fun:_ZN4llvm16GCNTargetMachine16createPassConfigERNS_6legacy15PassManagerBaseE
   fun:_ZN4llvm17LLVMTargetMachine19addPassesToEmitFileERNS_6legacy15PassManagerBaseERNS_17raw_pwrite_streamEPS4_NS_13TargetMachine15CodeGenFileTypeEbPNS_17MachineModuleInfoE
   obj:/usr/lib/x86_64-linux-gnu/dri/radeonsi_dri.so
}
{
   <insert_a_suppression_name_here>
   Memcheck:Leak
   match-leak-kinds: reachable
   fun:malloc
   obj:/usr/lib/x86_64-linux-gnu/libX11.so.6.3.0
   fun:_XrmInternalStringToQuark
   fun:_XlcGetCharSet
   fun:_XlcAddCT
   fun:_XlcInitCTInfo
   obj:/usr/lib/x86_64-linux-gnu/libX11.so.6.3.0
   obj:/usr/lib/x86_64-linux-gnu/libX11.so.6.3.0
   fun:_XlcCreateLC
   fun:_XlcUtf8Loader
   fun:_XOpenLC
   fun:_XlcCurrentLC
}
{
   <insert_a_suppression_name_here>
   Memcheck:Leak
   match-leak-kinds: reachable
   fun:malloc
   obj:/usr/lib/x86_64-linux-gnu/libX11.so.6.3.0
   fun:_XrmInternalStringToQuark
   fun:_XlcGetLocaleDataBase
   obj:/usr/lib/x86_64-linux-gnu/libX11.so.6.3.0
   obj:/usr/lib/x86_64-linux-gnu/libX11.so.6.3.0
   fun:_XlcCreateLC
   fun:_XlcUtf8Loader
   fun:_XOpenLC
   fun:_XlcCurrentLC
   fun:XSetLocaleModifiers
   obj:/usr/lib/x86_64-linux-gnu/libSDL2-2.0.so.0.10.0
}
{
   <insert_a_suppression_name_here>
   Memcheck:Leak
   match-leak-kinds: reachable
   fun:_Znwm
   obj:/usr/lib/x86_64-linux-gnu/libLLVM-9.so.1
   obj:/usr/lib/x86_64-linux-gnu/libLLVM-9.so.1
   fun:_ZN4llvm12PassRegistry12registerPassERKNS_8PassInfoEb
   obj:/usr/lib/x86_64-linux-gnu/libLLVM-9.so.1
   fun:__pthread_once_slow
   fun:_ZN4llvm27initializeWasmEHPreparePassERNS_12PassRegistryE
   fun:_ZN4llvm17initializeCodeGenERNS_12PassRegistryE
   fun:_ZN4llvm16TargetPassConfigC1ERNS_17LLVMTargetMachineERNS_6legacy15PassManagerBaseE
   fun:_ZN4llvm16GCNTargetMachine16createPassConfigERNS_6legacy15PassManagerBaseE
   fun:_ZN4llvm17LLVMTargetMachine19addPassesToEmitFileERNS_6legacy15PassManagerBaseERNS_17raw_pwrite_streamEPS4_NS_13TargetMachine15CodeGenFileTypeEbPNS_17MachineModuleInfoE
   obj:/usr/lib/x86_64-linux-gnu/dri/radeonsi_dri.so
}
{
   <insert_a_suppression_name_here>
   Memcheck:Leak
   match-leak-kinds: reachable
   fun:calloc
   fun:_dl_new_object
   fun:_dl_map_object_from_fd
   fun:_dl_map_object
   fun:openaux
   fun:_dl_catch_exception
   fun:_dl_map_object_deps
   fun:dl_open_worker
   fun:_dl_catch_exception
   fun:_dl_open
   fun:dlopen_doit
   fun:_dl_catch_exception
}
{
   <insert_a_suppression_name_here>
   Memcheck:Leak
   match-leak-kinds: reachable
   fun:calloc
   fun:_ZN4llvm13StringMapImpl11RehashTableEj
   obj:/usr/lib/x86_64-linux-gnu/libLLVM-9.so.1
   obj:/usr/lib/x86_64-linux-gnu/libLLVM-9.so.1
   fun:_ZN4llvm2cl6Option11addArgumentEv
   obj:/usr/lib/x86_64-linux-gnu/libLLVM-9.so.1
   fun:call_init.part.0
   fun:call_init
   fun:_dl_init
   fun:_dl_catch_exception
   fun:dl_open_worker
   fun:_dl_catch_exception
   fun:_dl_open
}
{
   <insert_a_suppression_name_here>
   Memcheck:Leak
   match-leak-kinds: definite
   fun:malloc
   obj:/usr/lib/x86_64-linux-gnu/dri/radeonsi_dri.so
   obj:/usr/lib/x86_64-linux-gnu/dri/radeonsi_dri.so
   obj:/usr/lib/x86_64-linux-gnu/dri/radeonsi_dri.so
   obj:/usr/lib/x86_64-linux-gnu/dri/radeonsi_dri.so
   obj:/usr/lib/x86_64-linux-gnu/dri/radeonsi_dri.so
   obj:/usr/lib/x86_64-linux-gnu/dri/radeonsi_dri.so
   obj:/usr/lib/x86_64-linux-gnu/dri/radeonsi_dri.so
   obj:/usr/lib/x86_64-linux-gnu/dri/radeonsi_dri.so
   obj:/usr/lib/x86_64-linux-gnu/dri/radeonsi_dri.so
   obj:/usr/lib/x86_64-linux-gnu/dri/radeonsi_dri.so
   obj:/usr/lib/x86_64-linux-gnu/dri/radeonsi_dri.so
}
